; Listing generated by Microsoft (R) Optimizing Compiler Version 19.14.26433.0 

include listing.inc

INCLUDELIB MSVCRTD
INCLUDELIB OLDNAMES

PUBLIC	?check@@3HA					; check
PUBLIC	?a@@3NA						; a
PUBLIC	?b@@3NA						; b
PUBLIC	?powcheck@@3NA					; powcheck
PUBLIC	?k@@3NA						; k
PUBLIC	?d@@3NA						; d
PUBLIC	?x@@3NA						; x
PUBLIC	?y@@3NA						; y
PUBLIC	?verify@@3HA					; verify
PUBLIC	?percentage@@3HA				; percentage
PUBLIC	?c@@3NA						; c
PUBLIC	?score@@3PAMA					; score
PUBLIC	?totalscore@@3MA				; totalscore
PUBLIC	?stagetime@@3PANA				; stagetime
_BSS	SEGMENT
?a@@3NA	DQ	01H DUP (?)				; a
?b@@3NA	DQ	01H DUP (?)				; b
?powcheck@@3NA DQ 01H DUP (?)				; powcheck
?k@@3NA	DQ	01H DUP (?)				; k
?d@@3NA	DQ	01H DUP (?)				; d
?x@@3NA	DQ	01H DUP (?)				; x
?y@@3NA	DQ	01H DUP (?)				; y
?verify@@3HA DD	01H DUP (?)				; verify
?percentage@@3HA DD 01H DUP (?)				; percentage
?c@@3NA	DQ	01H DUP (?)				; c
?score@@3PAMA DD 05H DUP (?)				; score
?totalscore@@3MA DD 01H DUP (?)				; totalscore
?stagetime@@3PANA DQ 05H DUP (?)			; stagetime
_BSS	ENDS
_DATA	SEGMENT
?check@@3HA DD	02H					; check
_DATA	ENDS
PUBLIC	?__empty_global_delete@@YAXPEAX@Z		; __empty_global_delete
PUBLIC	?__empty_global_delete@@YAXPEAX_K@Z		; __empty_global_delete
PUBLIC	?pow@@YANNH@Z					; pow
PUBLIC	?length@?$char_traits@D@std@@SA_KQEBD@Z		; std::char_traits<char>::length
PUBLIC	?eq_int_type@?$char_traits@D@std@@SA_NAEBH0@Z	; std::char_traits<char>::eq_int_type
PUBLIC	?eof@?$char_traits@D@std@@SAHXZ			; std::char_traits<char>::eof
PUBLIC	?selection@@YAXXZ				; selection
PUBLIC	??$?6U?$char_traits@D@std@@@std@@YAAEAV?$basic_ostream@DU?$char_traits@D@std@@@0@AEAV10@D@Z ; std::operator<<<std::char_traits<char> >
PUBLIC	??$?6U?$char_traits@D@std@@@std@@YAAEAV?$basic_ostream@DU?$char_traits@D@std@@@0@AEAV10@PEBD@Z ; std::operator<<<std::char_traits<char> >
PUBLIC	?mainbase@@YAXXZ				; mainbase
PUBLIC	main
PUBLIC	??0_Sentry_base@?$basic_ostream@DU?$char_traits@D@std@@@std@@QEAA@AEAV12@@Z ; std::basic_ostream<char,std::char_traits<char> >::_Sentry_base::_Sentry_base
PUBLIC	??1_Sentry_base@?$basic_ostream@DU?$char_traits@D@std@@@std@@QEAA@XZ ; std::basic_ostream<char,std::char_traits<char> >::_Sentry_base::~_Sentry_base
PUBLIC	??0sentry@?$basic_ostream@DU?$char_traits@D@std@@@std@@QEAA@AEAV12@@Z ; std::basic_ostream<char,std::char_traits<char> >::sentry::sentry
PUBLIC	??1sentry@?$basic_ostream@DU?$char_traits@D@std@@@std@@QEAA@XZ ; std::basic_ostream<char,std::char_traits<char> >::sentry::~sentry
PUBLIC	??Bsentry@?$basic_ostream@DU?$char_traits@D@std@@@std@@QEBA_NXZ ; std::basic_ostream<char,std::char_traits<char> >::sentry::operator bool
PUBLIC	??_C@_0BO@DAJFEOKA@Type?51?5to?5start?5benchmarking?4?$AA@ ; `string'
PUBLIC	_TI1H
PUBLIC	_CTA1H
PUBLIC	??_R0H@8					; int `RTTI Type Descriptor'
PUBLIC	_CT??_R0H@84
PUBLIC	_TI2PEAD
PUBLIC	_CTA2PEAD
PUBLIC	??_R0PEAD@8					; char * `RTTI Type Descriptor'
PUBLIC	_CT??_R0PEAD@88
PUBLIC	??_R0PEAX@8					; void * `RTTI Type Descriptor'
PUBLIC	_CT??_R0PEAX@88
PUBLIC	??_C@_0BM@BHCOCDDO@Invalid?5number?0?5try?5again?5?6?$AA@ ; `string'
PUBLIC	??_C@_0CJ@BBLAGGGH@Invalid?5entry?4?5Program?5will?5clos@ ; `string'
PUBLIC	??_C@_0N@FDENFJAP@?5?$CF?5complete?$CB?$AA@	; `string'
PUBLIC	??_C@_0BN@KEIIGMGP@Time?5taken?5for?5that?5stage?3?9?5?$AA@ ; `string'
PUBLIC	??_C@_0CB@GCCJPACJ@Score?5obtained?5for?5that?5stage?3?9?5@ ; `string'
PUBLIC	??_C@_0L@NPJALOFP@?5seconds?5?6?$AA@		; `string'
PUBLIC	??_C@_04HNABGNME@?5is?5?$AA@			; `string'
PUBLIC	??_C@_0BO@NKJLBHOG@Average?5time?5taken?5for?5stage?5?$AA@ ; `string'
PUBLIC	??_C@_08HNCFKHPB@?5points?$CB?$AA@		; `string'
PUBLIC	??_C@_0CD@BOJLJHDN@Your?5system?5has?5scored?5a?5total?5o@ ; `string'
PUBLIC	??_C@_05PDJBBECF@pause?$AA@			; `string'
PUBLIC	__real@3b449ba6
PUBLIC	__real@3d0f5c29
PUBLIC	__real@3e8bc6a8
PUBLIC	__real@3fc999999999999a
PUBLIC	__real@3ff0000000000000
PUBLIC	__real@3ff6b851eb851eb8
PUBLIC	__real@4000000000000000
PUBLIC	__real@400e6666
PUBLIC	__real@4059000000000000
PUBLIC	__real@4069000000000000
PUBLIC	__real@406f400000000000
PUBLIC	__real@407f400000000000
PUBLIC	__real@408f400000000000
PUBLIC	__real@4097700000000000
PUBLIC	__real@40a00000
PUBLIC	__real@40f126e9
EXTRN	__imp_exit:PROC
EXTRN	__imp_system:PROC
EXTRN	pow:PROC
EXTRN	__imp_ceil:PROC
EXTRN	strlen:PROC
EXTRN	?uncaught_exception@std@@YA_NXZ:PROC		; std::uncaught_exception
EXTRN	__imp_?good@ios_base@std@@QEBA_NXZ:PROC
EXTRN	__imp_?fail@ios_base@std@@QEBA_NXZ:PROC
EXTRN	__imp_?flags@ios_base@std@@QEBAHXZ:PROC
EXTRN	__imp_?width@ios_base@std@@QEBA_JXZ:PROC
EXTRN	__imp_?width@ios_base@std@@QEAA_J_J@Z:PROC
EXTRN	__imp_?sputc@?$basic_streambuf@DU?$char_traits@D@std@@@std@@QEAAHD@Z:PROC
EXTRN	__imp_?sputn@?$basic_streambuf@DU?$char_traits@D@std@@@std@@QEAA_JPEBD_J@Z:PROC
EXTRN	__imp_?setstate@?$basic_ios@DU?$char_traits@D@std@@@std@@QEAAXH_N@Z:PROC
EXTRN	__imp_?tie@?$basic_ios@DU?$char_traits@D@std@@@std@@QEBAPEAV?$basic_ostream@DU?$char_traits@D@std@@@2@XZ:PROC
EXTRN	__imp_?rdbuf@?$basic_ios@DU?$char_traits@D@std@@@std@@QEBAPEAV?$basic_streambuf@DU?$char_traits@D@std@@@2@XZ:PROC
EXTRN	__imp_?fill@?$basic_ios@DU?$char_traits@D@std@@@std@@QEBADXZ:PROC
EXTRN	__imp_?_Osfx@?$basic_ostream@DU?$char_traits@D@std@@@std@@QEAAXXZ:PROC
EXTRN	__imp_??6?$basic_ostream@DU?$char_traits@D@std@@@std@@QEAAAEAV01@H@Z:PROC
EXTRN	__imp_??6?$basic_ostream@DU?$char_traits@D@std@@@std@@QEAAAEAV01@M@Z:PROC
EXTRN	__imp_??6?$basic_ostream@DU?$char_traits@D@std@@@std@@QEAAAEAV01@N@Z:PROC
EXTRN	__imp_?flush@?$basic_ostream@DU?$char_traits@D@std@@@std@@QEAAAEAV12@XZ:PROC
EXTRN	__imp_??5?$basic_istream@DU?$char_traits@D@std@@@std@@QEAAAEAV01@AEAH@Z:PROC
EXTRN	__imp_clock:PROC
EXTRN	__imp__getch:PROC
EXTRN	_CxxThrowException:PROC
EXTRN	_RTC_CheckStackVars:PROC
EXTRN	_RTC_InitBase:PROC
EXTRN	_RTC_Shutdown:PROC
EXTRN	__CxxFrameHandler3:PROC
EXTRN	__GSHandlerCheck:PROC
EXTRN	__security_check_cookie:PROC
EXTRN	??_7type_info@@6B@:BYTE				; type_info::`vftable'
EXTRN	__imp_?cin@std@@3V?$basic_istream@DU?$char_traits@D@std@@@1@A:BYTE
EXTRN	__imp_?cout@std@@3V?$basic_ostream@DU?$char_traits@D@std@@@1@A:BYTE
EXTRN	__security_cookie:QWORD
EXTRN	_fltused:DWORD
;	COMDAT pdata
pdata	SEGMENT
$pdata$?__empty_global_delete@@YAXPEAX@Z DD imagerel $LN3
	DD	imagerel $LN3+50
	DD	imagerel $unwind$?__empty_global_delete@@YAXPEAX@Z
pdata	ENDS
;	COMDAT pdata
pdata	SEGMENT
$pdata$?__empty_global_delete@@YAXPEAX_K@Z DD imagerel $LN3
	DD	imagerel $LN3+55
	DD	imagerel $unwind$?__empty_global_delete@@YAXPEAX_K@Z
pdata	ENDS
;	COMDAT pdata
pdata	SEGMENT
$pdata$?pow@@YANNH@Z DD imagerel $LN4
	DD	imagerel $LN4+100
	DD	imagerel $unwind$?pow@@YANNH@Z
pdata	ENDS
;	COMDAT pdata
pdata	SEGMENT
$pdata$?length@?$char_traits@D@std@@SA_KQEBD@Z DD imagerel $LN3
	DD	imagerel $LN3+64
	DD	imagerel $unwind$?length@?$char_traits@D@std@@SA_KQEBD@Z
pdata	ENDS
;	COMDAT pdata
pdata	SEGMENT
$pdata$?eq_int_type@?$char_traits@D@std@@SA_NAEBH0@Z DD imagerel $LN5
	DD	imagerel $LN5+104
	DD	imagerel $unwind$?eq_int_type@?$char_traits@D@std@@SA_NAEBH0@Z
pdata	ENDS
;	COMDAT pdata
pdata	SEGMENT
$pdata$?eof@?$char_traits@D@std@@SAHXZ DD imagerel $LN3
	DD	imagerel $LN3+43
	DD	imagerel $unwind$?eof@?$char_traits@D@std@@SAHXZ
pdata	ENDS
;	COMDAT pdata
pdata	SEGMENT
$pdata$?selection@@YAXXZ DD imagerel $LN18
	DD	imagerel $LN18+249
	DD	imagerel $unwind$?selection@@YAXXZ
pdata	ENDS
;	COMDAT pdata
pdata	SEGMENT
$pdata$?catch$0@?0??selection@@YAXXZ@4HA DD imagerel ?catch$0@?0??selection@@YAXXZ@4HA
	DD	imagerel ?catch$0@?0??selection@@YAXXZ@4HA+71
	DD	imagerel $unwind$?catch$0@?0??selection@@YAXXZ@4HA
pdata	ENDS
;	COMDAT pdata
pdata	SEGMENT
$pdata$?catch$1@?0??selection@@YAXXZ@4HA DD imagerel ?catch$1@?0??selection@@YAXXZ@4HA
	DD	imagerel ?catch$1@?0??selection@@YAXXZ@4HA+72
	DD	imagerel $unwind$?catch$1@?0??selection@@YAXXZ@4HA
pdata	ENDS
;	COMDAT pdata
pdata	SEGMENT
$pdata$??$?6U?$char_traits@D@std@@@std@@YAAEAV?$basic_ostream@DU?$char_traits@D@std@@@0@AEAV10@D@Z DD imagerel $LN23
	DD	imagerel $LN23+968
	DD	imagerel $unwind$??$?6U?$char_traits@D@std@@@std@@YAAEAV?$basic_ostream@DU?$char_traits@D@std@@@0@AEAV10@D@Z
pdata	ENDS
;	COMDAT pdata
pdata	SEGMENT
$pdata$?dtor$0@?0???$?6U?$char_traits@D@std@@@std@@YAAEAV?$basic_ostream@DU?$char_traits@D@std@@@0@AEAV10@D@Z@4HA DD imagerel ?dtor$0@?0???$?6U?$char_traits@D@std@@@std@@YAAEAV?$basic_ostream@DU?$char_traits@D@std@@@0@AEAV10@D@Z@4HA
	DD	imagerel ?dtor$0@?0???$?6U?$char_traits@D@std@@@std@@YAAEAV?$basic_ostream@DU?$char_traits@D@std@@@0@AEAV10@D@Z@4HA+36
	DD	imagerel $unwind$?dtor$0@?0???$?6U?$char_traits@D@std@@@std@@YAAEAV?$basic_ostream@DU?$char_traits@D@std@@@0@AEAV10@D@Z@4HA
pdata	ENDS
;	COMDAT pdata
pdata	SEGMENT
$pdata$?catch$1@?0???$?6U?$char_traits@D@std@@@std@@YAAEAV?$basic_ostream@DU?$char_traits@D@std@@@0@AEAV10@D@Z@4HA DD imagerel ?catch$1@?0???$?6U?$char_traits@D@std@@@std@@YAAEAV?$basic_ostream@DU?$char_traits@D@std@@@0@AEAV10@D@Z@4HA
	DD	imagerel ?catch$1@?0???$?6U?$char_traits@D@std@@@std@@YAAEAV?$basic_ostream@DU?$char_traits@D@std@@@0@AEAV10@D@Z@4HA+80
	DD	imagerel $unwind$?catch$1@?0???$?6U?$char_traits@D@std@@@std@@YAAEAV?$basic_ostream@DU?$char_traits@D@std@@@0@AEAV10@D@Z@4HA
pdata	ENDS
;	COMDAT pdata
pdata	SEGMENT
$pdata$??$?6U?$char_traits@D@std@@@std@@YAAEAV?$basic_ostream@DU?$char_traits@D@std@@@0@AEAV10@PEBD@Z DD imagerel $LN25
	DD	imagerel $LN25+1001
	DD	imagerel $unwind$??$?6U?$char_traits@D@std@@@std@@YAAEAV?$basic_ostream@DU?$char_traits@D@std@@@0@AEAV10@PEBD@Z
pdata	ENDS
;	COMDAT pdata
pdata	SEGMENT
$pdata$?dtor$0@?0???$?6U?$char_traits@D@std@@@std@@YAAEAV?$basic_ostream@DU?$char_traits@D@std@@@0@AEAV10@PEBD@Z@4HA DD imagerel ?dtor$0@?0???$?6U?$char_traits@D@std@@@std@@YAAEAV?$basic_ostream@DU?$char_traits@D@std@@@0@AEAV10@PEBD@Z@4HA
	DD	imagerel ?dtor$0@?0???$?6U?$char_traits@D@std@@@std@@YAAEAV?$basic_ostream@DU?$char_traits@D@std@@@0@AEAV10@PEBD@Z@4HA+36
	DD	imagerel $unwind$?dtor$0@?0???$?6U?$char_traits@D@std@@@std@@YAAEAV?$basic_ostream@DU?$char_traits@D@std@@@0@AEAV10@PEBD@Z@4HA
pdata	ENDS
;	COMDAT pdata
pdata	SEGMENT
$pdata$?catch$1@?0???$?6U?$char_traits@D@std@@@std@@YAAEAV?$basic_ostream@DU?$char_traits@D@std@@@0@AEAV10@PEBD@Z@4HA DD imagerel ?catch$1@?0???$?6U?$char_traits@D@std@@@std@@YAAEAV?$basic_ostream@DU?$char_traits@D@std@@@0@AEAV10@PEBD@Z@4HA
	DD	imagerel ?catch$1@?0???$?6U?$char_traits@D@std@@@std@@YAAEAV?$basic_ostream@DU?$char_traits@D@std@@@0@AEAV10@PEBD@Z@4HA+80
	DD	imagerel $unwind$?catch$1@?0???$?6U?$char_traits@D@std@@@std@@YAAEAV?$basic_ostream@DU?$char_traits@D@std@@@0@AEAV10@PEBD@Z@4HA
pdata	ENDS
;	COMDAT pdata
pdata	SEGMENT
$pdata$?mainbase@@YAXXZ DD imagerel $LN32
	DD	imagerel $LN32+1363
	DD	imagerel $unwind$?mainbase@@YAXXZ
pdata	ENDS
;	COMDAT pdata
pdata	SEGMENT
$pdata$main DD	imagerel $LN6
	DD	imagerel $LN6+288
	DD	imagerel $unwind$main
pdata	ENDS
;	COMDAT pdata
pdata	SEGMENT
$pdata$??0_Sentry_base@?$basic_ostream@DU?$char_traits@D@std@@@std@@QEAA@AEAV12@@Z DD imagerel $LN4
	DD	imagerel $LN4+219
	DD	imagerel $unwind$??0_Sentry_base@?$basic_ostream@DU?$char_traits@D@std@@@std@@QEAA@AEAV12@@Z
pdata	ENDS
;	COMDAT pdata
pdata	SEGMENT
$pdata$??1_Sentry_base@?$basic_ostream@DU?$char_traits@D@std@@@std@@QEAA@XZ DD imagerel $LN4
	DD	imagerel $LN4+204
	DD	imagerel $unwind$??1_Sentry_base@?$basic_ostream@DU?$char_traits@D@std@@@std@@QEAA@XZ
pdata	ENDS
;	COMDAT pdata
pdata	SEGMENT
$pdata$??0sentry@?$basic_ostream@DU?$char_traits@D@std@@@std@@QEAA@AEAV12@@Z DD imagerel $LN5
	DD	imagerel $LN5+319
	DD	imagerel $unwind$??0sentry@?$basic_ostream@DU?$char_traits@D@std@@@std@@QEAA@AEAV12@@Z
pdata	ENDS
;	COMDAT pdata
pdata	SEGMENT
$pdata$?dtor$0@?0???0sentry@?$basic_ostream@DU?$char_traits@D@std@@@std@@QEAA@AEAV12@@Z@4HA DD imagerel ?dtor$0@?0???0sentry@?$basic_ostream@DU?$char_traits@D@std@@@std@@QEAA@AEAV12@@Z@4HA
	DD	imagerel ?dtor$0@?0???0sentry@?$basic_ostream@DU?$char_traits@D@std@@@std@@QEAA@AEAV12@@Z@4HA+39
	DD	imagerel $unwind$?dtor$0@?0???0sentry@?$basic_ostream@DU?$char_traits@D@std@@@std@@QEAA@AEAV12@@Z@4HA
pdata	ENDS
;	COMDAT pdata
pdata	SEGMENT
$pdata$??1sentry@?$basic_ostream@DU?$char_traits@D@std@@@std@@QEAA@XZ DD imagerel $LN4
	DD	imagerel $LN4+106
	DD	imagerel $unwind$??1sentry@?$basic_ostream@DU?$char_traits@D@std@@@std@@QEAA@XZ
pdata	ENDS
;	COMDAT pdata
pdata	SEGMENT
$pdata$??Bsentry@?$basic_ostream@DU?$char_traits@D@std@@@std@@QEBA_NXZ DD imagerel $LN3
	DD	imagerel $LN3+61
	DD	imagerel $unwind$??Bsentry@?$basic_ostream@DU?$char_traits@D@std@@@std@@QEBA_NXZ
pdata	ENDS
;	COMDAT __real@40f126e9
CONST	SEGMENT
__real@40f126e9 DD 040f126e9r			; 7.536
CONST	ENDS
;	COMDAT __real@40a00000
CONST	SEGMENT
__real@40a00000 DD 040a00000r			; 5
CONST	ENDS
;	COMDAT __real@4097700000000000
CONST	SEGMENT
__real@4097700000000000 DQ 04097700000000000r	; 1500
CONST	ENDS
;	COMDAT __real@408f400000000000
CONST	SEGMENT
__real@408f400000000000 DQ 0408f400000000000r	; 1000
CONST	ENDS
;	COMDAT __real@407f400000000000
CONST	SEGMENT
__real@407f400000000000 DQ 0407f400000000000r	; 500
CONST	ENDS
;	COMDAT __real@406f400000000000
CONST	SEGMENT
__real@406f400000000000 DQ 0406f400000000000r	; 250
CONST	ENDS
;	COMDAT __real@4069000000000000
CONST	SEGMENT
__real@4069000000000000 DQ 04069000000000000r	; 200
CONST	ENDS
;	COMDAT __real@4059000000000000
CONST	SEGMENT
__real@4059000000000000 DQ 04059000000000000r	; 100
CONST	ENDS
;	COMDAT __real@400e6666
CONST	SEGMENT
__real@400e6666 DD 0400e6666r			; 2.225
CONST	ENDS
;	COMDAT __real@4000000000000000
CONST	SEGMENT
__real@4000000000000000 DQ 04000000000000000r	; 2
CONST	ENDS
;	COMDAT __real@3ff6b851eb851eb8
CONST	SEGMENT
__real@3ff6b851eb851eb8 DQ 03ff6b851eb851eb8r	; 1.42
CONST	ENDS
;	COMDAT __real@3ff0000000000000
CONST	SEGMENT
__real@3ff0000000000000 DQ 03ff0000000000000r	; 1
CONST	ENDS
;	COMDAT __real@3fc999999999999a
CONST	SEGMENT
__real@3fc999999999999a DQ 03fc999999999999ar	; 0.2
CONST	ENDS
;	COMDAT __real@3e8bc6a8
CONST	SEGMENT
__real@3e8bc6a8 DD 03e8bc6a8r			; 0.273
CONST	ENDS
;	COMDAT __real@3d0f5c29
CONST	SEGMENT
__real@3d0f5c29 DD 03d0f5c29r			; 0.035
CONST	ENDS
;	COMDAT __real@3b449ba6
CONST	SEGMENT
__real@3b449ba6 DD 03b449ba6r			; 0.003
CONST	ENDS
;	COMDAT rtc$TMZ
rtc$TMZ	SEGMENT
_RTC_Shutdown.rtc$TMZ DQ FLAT:_RTC_Shutdown
rtc$TMZ	ENDS
;	COMDAT rtc$IMZ
rtc$IMZ	SEGMENT
_RTC_InitBase.rtc$IMZ DQ FLAT:_RTC_InitBase
rtc$IMZ	ENDS
;	COMDAT ??_C@_05PDJBBECF@pause?$AA@
CONST	SEGMENT
??_C@_05PDJBBECF@pause?$AA@ DB 'pause', 00H		; `string'
CONST	ENDS
;	COMDAT ??_C@_0CD@BOJLJHDN@Your?5system?5has?5scored?5a?5total?5o@
CONST	SEGMENT
??_C@_0CD@BOJLJHDN@Your?5system?5has?5scored?5a?5total?5o@ DB 'Your syste'
	DB	'm has scored a total of ', 00H		; `string'
CONST	ENDS
;	COMDAT ??_C@_08HNCFKHPB@?5points?$CB?$AA@
CONST	SEGMENT
??_C@_08HNCFKHPB@?5points?$CB?$AA@ DB ' points!', 00H	; `string'
CONST	ENDS
;	COMDAT ??_C@_0BO@NKJLBHOG@Average?5time?5taken?5for?5stage?5?$AA@
CONST	SEGMENT
??_C@_0BO@NKJLBHOG@Average?5time?5taken?5for?5stage?5?$AA@ DB 'Average ti'
	DB	'me taken for stage ', 00H			; `string'
CONST	ENDS
;	COMDAT ??_C@_04HNABGNME@?5is?5?$AA@
CONST	SEGMENT
??_C@_04HNABGNME@?5is?5?$AA@ DB ' is ', 00H		; `string'
CONST	ENDS
;	COMDAT ??_C@_0L@NPJALOFP@?5seconds?5?6?$AA@
CONST	SEGMENT
??_C@_0L@NPJALOFP@?5seconds?5?6?$AA@ DB ' seconds ', 0aH, 00H ; `string'
CONST	ENDS
;	COMDAT ??_C@_0CB@GCCJPACJ@Score?5obtained?5for?5that?5stage?3?9?5@
CONST	SEGMENT
??_C@_0CB@GCCJPACJ@Score?5obtained?5for?5that?5stage?3?9?5@ DB 'Score obt'
	DB	'ained for that stage:- ', 00H		; `string'
CONST	ENDS
;	COMDAT ??_C@_0BN@KEIIGMGP@Time?5taken?5for?5that?5stage?3?9?5?$AA@
CONST	SEGMENT
??_C@_0BN@KEIIGMGP@Time?5taken?5for?5that?5stage?3?9?5?$AA@ DB 'Time take'
	DB	'n for that stage:- ', 00H			; `string'
CONST	ENDS
;	COMDAT ??_C@_0N@FDENFJAP@?5?$CF?5complete?$CB?$AA@
CONST	SEGMENT
??_C@_0N@FDENFJAP@?5?$CF?5complete?$CB?$AA@ DB ' % complete!', 00H ; `string'
CONST	ENDS
;	COMDAT ??_C@_0CJ@BBLAGGGH@Invalid?5entry?4?5Program?5will?5clos@
CONST	SEGMENT
??_C@_0CJ@BBLAGGGH@Invalid?5entry?4?5Program?5will?5clos@ DB 'Invalid ent'
	DB	'ry. Program will close now. ', 0aH, 00H	; `string'
CONST	ENDS
;	COMDAT ??_C@_0BM@BHCOCDDO@Invalid?5number?0?5try?5again?5?6?$AA@
CONST	SEGMENT
??_C@_0BM@BHCOCDDO@Invalid?5number?0?5try?5again?5?6?$AA@ DB 'Invalid num'
	DB	'ber, try again ', 0aH, 00H			; `string'
CONST	ENDS
;	COMDAT _CT??_R0PEAX@88
xdata$x	SEGMENT
_CT??_R0PEAX@88 DD 01H
	DD	imagerel ??_R0PEAX@8
	DD	00H
	DD	0ffffffffH
	ORG $+4
	DD	08H
	DD	00H
xdata$x	ENDS
;	COMDAT ??_R0PEAX@8
data$r	SEGMENT
??_R0PEAX@8 DQ	FLAT:??_7type_info@@6B@			; void * `RTTI Type Descriptor'
	DQ	0000000000000000H
	DB	'.PEAX', 00H
data$r	ENDS
;	COMDAT _CT??_R0PEAD@88
xdata$x	SEGMENT
_CT??_R0PEAD@88 DD 01H
	DD	imagerel ??_R0PEAD@8
	DD	00H
	DD	0ffffffffH
	ORG $+4
	DD	08H
	DD	00H
xdata$x	ENDS
;	COMDAT ??_R0PEAD@8
data$r	SEGMENT
??_R0PEAD@8 DQ	FLAT:??_7type_info@@6B@			; char * `RTTI Type Descriptor'
	DQ	0000000000000000H
	DB	'.PEAD', 00H
data$r	ENDS
;	COMDAT _CTA2PEAD
xdata$x	SEGMENT
_CTA2PEAD DD	02H
	DD	imagerel _CT??_R0PEAD@88
	DD	imagerel _CT??_R0PEAX@88
xdata$x	ENDS
;	COMDAT _TI2PEAD
xdata$x	SEGMENT
_TI2PEAD DD	00H
	DD	00H
	DD	00H
	DD	imagerel _CTA2PEAD
xdata$x	ENDS
;	COMDAT _CT??_R0H@84
xdata$x	SEGMENT
_CT??_R0H@84 DD	01H
	DD	imagerel ??_R0H@8
	DD	00H
	DD	0ffffffffH
	ORG $+4
	DD	04H
	DD	00H
xdata$x	ENDS
;	COMDAT ??_R0H@8
data$r	SEGMENT
??_R0H@8 DQ	FLAT:??_7type_info@@6B@			; int `RTTI Type Descriptor'
	DQ	0000000000000000H
	DB	'.H', 00H
data$r	ENDS
;	COMDAT _CTA1H
xdata$x	SEGMENT
_CTA1H	DD	01H
	DD	imagerel _CT??_R0H@84
xdata$x	ENDS
;	COMDAT _TI1H
xdata$x	SEGMENT
_TI1H	DD	00H
	DD	00H
	DD	00H
	DD	imagerel _CTA1H
xdata$x	ENDS
;	COMDAT ??_C@_0BO@DAJFEOKA@Type?51?5to?5start?5benchmarking?4?$AA@
CONST	SEGMENT
??_C@_0BO@DAJFEOKA@Type?51?5to?5start?5benchmarking?4?$AA@ DB 'Type 1 to '
	DB	'start benchmarking.', 00H			; `string'
CONST	ENDS
;	COMDAT xdata
xdata	SEGMENT
$unwind$??Bsentry@?$basic_ostream@DU?$char_traits@D@std@@@std@@QEBA_NXZ DD 05052801H
	DD	010e0311H
	DD	070070019H
	DD	05006H
xdata	ENDS
;	COMDAT xdata
xdata	SEGMENT
$ip2state$??1sentry@?$basic_ostream@DU?$char_traits@D@std@@@std@@QEAA@XZ DD imagerel ??1sentry@?$basic_ostream@DU?$char_traits@D@std@@@std@@QEAA@XZ
	DD	0ffffffffH
xdata	ENDS
;	COMDAT CONST
CONST	SEGMENT
$cppxdata$??1sentry@?$basic_ostream@DU?$char_traits@D@std@@@std@@QEAA@XZ DD 019930522H
	DD	00H
	DD	00H
	DD	00H
	DD	00H
	DD	01H
	DD	imagerel $ip2state$??1sentry@?$basic_ostream@DU?$char_traits@D@std@@@std@@QEAA@XZ
	DD	0e8H
	DD	00H
	DD	05H
CONST	ENDS
;	COMDAT xdata
xdata	SEGMENT
$unwind$??1sentry@?$basic_ostream@DU?$char_traits@D@std@@@std@@QEAA@XZ DD 025053519H
	DD	010e2313H
	DD	070070021H
	DD	05006H
	DD	imagerel __CxxFrameHandler3
	DD	imagerel $cppxdata$??1sentry@?$basic_ostream@DU?$char_traits@D@std@@@std@@QEAA@XZ
xdata	ENDS
;	COMDAT xdata
xdata	SEGMENT
$unwind$?dtor$0@?0???0sentry@?$basic_ostream@DU?$char_traits@D@std@@@std@@QEAA@AEAV12@@Z@4HA DD 031001H
	DD	0700c4210H
	DD	0500bH
xdata	ENDS
;	COMDAT xdata
xdata	SEGMENT
$ip2state$??0sentry@?$basic_ostream@DU?$char_traits@D@std@@@std@@QEAA@AEAV12@@Z DD imagerel ??0sentry@?$basic_ostream@DU?$char_traits@D@std@@@std@@QEAA@AEAV12@@Z
	DD	0ffffffffH
	DD	imagerel ??0sentry@?$basic_ostream@DU?$char_traits@D@std@@@std@@QEAA@AEAV12@@Z+78
	DD	00H
	DD	imagerel ??0sentry@?$basic_ostream@DU?$char_traits@D@std@@@std@@QEAA@AEAV12@@Z+302
	DD	0ffffffffH
xdata	ENDS
;	COMDAT xdata
xdata	SEGMENT
$stateUnwindMap$??0sentry@?$basic_ostream@DU?$char_traits@D@std@@@std@@QEAA@AEAV12@@Z DD 0ffffffffH
	DD	imagerel ?dtor$0@?0???0sentry@?$basic_ostream@DU?$char_traits@D@std@@@std@@QEAA@AEAV12@@Z@4HA
xdata	ENDS
;	COMDAT CONST
CONST	SEGMENT
$cppxdata$??0sentry@?$basic_ostream@DU?$char_traits@D@std@@@std@@QEAA@AEAV12@@Z DD 019930522H
	DD	01H
	DD	imagerel $stateUnwindMap$??0sentry@?$basic_ostream@DU?$char_traits@D@std@@@std@@QEAA@AEAV12@@Z
	DD	00H
	DD	00H
	DD	03H
	DD	imagerel $ip2state$??0sentry@?$basic_ostream@DU?$char_traits@D@std@@@std@@QEAA@AEAV12@@Z
	DD	0e8H
	DD	00H
	DD	01H
CONST	ENDS
;	COMDAT xdata
xdata	SEGMENT
$unwind$??0sentry@?$basic_ostream@DU?$char_traits@D@std@@@std@@QEAA@AEAV12@@Z DD 025053a11H
	DD	01132318H
	DD	0700c0021H
	DD	0500bH
	DD	imagerel __CxxFrameHandler3
	DD	imagerel $cppxdata$??0sentry@?$basic_ostream@DU?$char_traits@D@std@@@std@@QEAA@AEAV12@@Z
xdata	ENDS
;	COMDAT xdata
xdata	SEGMENT
$ip2state$??1_Sentry_base@?$basic_ostream@DU?$char_traits@D@std@@@std@@QEAA@XZ DD imagerel ??1_Sentry_base@?$basic_ostream@DU?$char_traits@D@std@@@std@@QEAA@XZ
	DD	0ffffffffH
xdata	ENDS
;	COMDAT CONST
CONST	SEGMENT
$cppxdata$??1_Sentry_base@?$basic_ostream@DU?$char_traits@D@std@@@std@@QEAA@XZ DD 019930522H
	DD	00H
	DD	00H
	DD	00H
	DD	00H
	DD	01H
	DD	imagerel $ip2state$??1_Sentry_base@?$basic_ostream@DU?$char_traits@D@std@@@std@@QEAA@XZ
	DD	0e8H
	DD	00H
	DD	05H
CONST	ENDS
;	COMDAT xdata
xdata	SEGMENT
$unwind$??1_Sentry_base@?$basic_ostream@DU?$char_traits@D@std@@@std@@QEAA@XZ DD 025053519H
	DD	010e2313H
	DD	070070023H
	DD	05006H
	DD	imagerel __CxxFrameHandler3
	DD	imagerel $cppxdata$??1_Sentry_base@?$basic_ostream@DU?$char_traits@D@std@@@std@@QEAA@XZ
xdata	ENDS
;	COMDAT xdata
xdata	SEGMENT
$unwind$??0_Sentry_base@?$basic_ostream@DU?$char_traits@D@std@@@std@@QEAA@AEAV12@@Z DD 025052f01H
	DD	01132318H
	DD	0700c001fH
	DD	0500bH
xdata	ENDS
;	COMDAT xdata
xdata	SEGMENT
$unwind$main DD	025051e01H
	DD	010a230fH
	DD	070030023H
	DD	05002H
xdata	ENDS
;	COMDAT xdata
xdata	SEGMENT
$unwind$?mainbase@@YAXXZ DD 025052f19H
	DD	010a230fH
	DD	070030043H
	DD	05002H
	DD	imagerel __GSHandlerCheck
	DD	0200H
xdata	ENDS
;	COMDAT CONST
CONST	SEGMENT
?mainbase@@YAXXZ$rtcName$0 DB 074H			; mainbase
	DB	069H
	DB	06dH
	DB	065H
	DB	074H
	DB	061H
	DB	06bH
	DB	065H
	DB	00H
	ORG $+7
?mainbase@@YAXXZ$rtcVarDesc DD 048H			; mainbase
	DD	028H
	DQ	FLAT:?mainbase@@YAXXZ$rtcName$0
	ORG $+48
?mainbase@@YAXXZ$rtcFrameData DD 01H			; mainbase
	DD	00H
	DQ	FLAT:?mainbase@@YAXXZ$rtcVarDesc
CONST	ENDS
;	COMDAT xdata
xdata	SEGMENT
$unwind$?catch$1@?0???$?6U?$char_traits@D@std@@@std@@YAAEAV?$basic_ostream@DU?$char_traits@D@std@@@0@AEAV10@PEBD@Z@4HA DD 031019H
	DD	0700c4210H
	DD	0500bH
	DD	imagerel __CxxFrameHandler3
	DD	imagerel $cppxdata$??$?6U?$char_traits@D@std@@@std@@YAAEAV?$basic_ostream@DU?$char_traits@D@std@@@0@AEAV10@PEBD@Z
xdata	ENDS
;	COMDAT xdata
xdata	SEGMENT
$unwind$?dtor$0@?0???$?6U?$char_traits@D@std@@@std@@YAAEAV?$basic_ostream@DU?$char_traits@D@std@@@0@AEAV10@PEBD@Z@4HA DD 031001H
	DD	0700c4210H
	DD	0500bH
xdata	ENDS
;	COMDAT xdata
xdata	SEGMENT
$ip2state$??$?6U?$char_traits@D@std@@@std@@YAAEAV?$basic_ostream@DU?$char_traits@D@std@@@0@AEAV10@PEBD@Z DD imagerel ??$?6U?$char_traits@D@std@@@std@@YAAEAV?$basic_ostream@DU?$char_traits@D@std@@@0@AEAV10@PEBD@Z
	DD	0ffffffffH
	DD	imagerel ??$?6U?$char_traits@D@std@@@std@@YAAEAV?$basic_ostream@DU?$char_traits@D@std@@@0@AEAV10@PEBD@Z+252
	DD	00H
	DD	imagerel ??$?6U?$char_traits@D@std@@@std@@YAAEAV?$basic_ostream@DU?$char_traits@D@std@@@0@AEAV10@PEBD@Z+282
	DD	01H
	DD	imagerel ??$?6U?$char_traits@D@std@@@std@@YAAEAV?$basic_ostream@DU?$char_traits@D@std@@@0@AEAV10@PEBD@Z+895
	DD	00H
	DD	imagerel ??$?6U?$char_traits@D@std@@@std@@YAAEAV?$basic_ostream@DU?$char_traits@D@std@@@0@AEAV10@PEBD@Z+953
	DD	0ffffffffH
	DD	imagerel ?catch$1@?0???$?6U?$char_traits@D@std@@@std@@YAAEAV?$basic_ostream@DU?$char_traits@D@std@@@0@AEAV10@PEBD@Z@4HA
	DD	00H
	DD	imagerel ?catch$1@?0???$?6U?$char_traits@D@std@@@std@@YAAEAV?$basic_ostream@DU?$char_traits@D@std@@@0@AEAV10@PEBD@Z@4HA+20
	DD	02H
	DD	imagerel ?catch$1@?0???$?6U?$char_traits@D@std@@@std@@YAAEAV?$basic_ostream@DU?$char_traits@D@std@@@0@AEAV10@PEBD@Z@4HA+65
	DD	00H
xdata	ENDS
;	COMDAT xdata
xdata	SEGMENT
$handlerMap$0$??$?6U?$char_traits@D@std@@@std@@YAAEAV?$basic_ostream@DU?$char_traits@D@std@@@0@AEAV10@PEBD@Z DD 040H
	DD	00H
	DD	00H
	DD	imagerel ?catch$1@?0???$?6U?$char_traits@D@std@@@std@@YAAEAV?$basic_ostream@DU?$char_traits@D@std@@@0@AEAV10@PEBD@Z@4HA
	DD	048H
xdata	ENDS
;	COMDAT xdata
xdata	SEGMENT
$tryMap$??$?6U?$char_traits@D@std@@@std@@YAAEAV?$basic_ostream@DU?$char_traits@D@std@@@0@AEAV10@PEBD@Z DD 01H
	DD	01H
	DD	02H
	DD	01H
	DD	imagerel $handlerMap$0$??$?6U?$char_traits@D@std@@@std@@YAAEAV?$basic_ostream@DU?$char_traits@D@std@@@0@AEAV10@PEBD@Z
xdata	ENDS
;	COMDAT xdata
xdata	SEGMENT
$stateUnwindMap$??$?6U?$char_traits@D@std@@@std@@YAAEAV?$basic_ostream@DU?$char_traits@D@std@@@0@AEAV10@PEBD@Z DD 0ffffffffH
	DD	imagerel ?dtor$0@?0???$?6U?$char_traits@D@std@@@std@@YAAEAV?$basic_ostream@DU?$char_traits@D@std@@@0@AEAV10@PEBD@Z@4HA
	DD	00H
	DD	00H
	DD	00H
	DD	00H
xdata	ENDS
;	COMDAT xdata
xdata	SEGMENT
$unwind$??$?6U?$char_traits@D@std@@@std@@YAAEAV?$basic_ostream@DU?$char_traits@D@std@@@0@AEAV10@PEBD@Z DD 025053a19H
	DD	01132318H
	DD	0700c0049H
	DD	0500bH
	DD	imagerel __CxxFrameHandler3
	DD	imagerel $cppxdata$??$?6U?$char_traits@D@std@@@std@@YAAEAV?$basic_ostream@DU?$char_traits@D@std@@@0@AEAV10@PEBD@Z
xdata	ENDS
;	COMDAT CONST
CONST	SEGMENT
??$?6U?$char_traits@D@std@@@std@@YAAEAV?$basic_ostream@DU?$char_traits@D@std@@@0@AEAV10@PEBD@Z$rtcName$0 DB 05fH ; std::operator<<<std::char_traits<char> >
	DB	04fH
	DB	06bH
	DB	00H
	ORG $+12
??$?6U?$char_traits@D@std@@@std@@YAAEAV?$basic_ostream@DU?$char_traits@D@std@@@0@AEAV10@PEBD@Z$rtcVarDesc DD 088H ; std::operator<<<std::char_traits<char> >
	DD	010H
	DQ	FLAT:??$?6U?$char_traits@D@std@@@std@@YAAEAV?$basic_ostream@DU?$char_traits@D@std@@@0@AEAV10@PEBD@Z$rtcName$0
	ORG $+48
??$?6U?$char_traits@D@std@@@std@@YAAEAV?$basic_ostream@DU?$char_traits@D@std@@@0@AEAV10@PEBD@Z$rtcFrameData DD 01H ; std::operator<<<std::char_traits<char> >
	DD	00H
	DQ	FLAT:??$?6U?$char_traits@D@std@@@std@@YAAEAV?$basic_ostream@DU?$char_traits@D@std@@@0@AEAV10@PEBD@Z$rtcVarDesc
$cppxdata$??$?6U?$char_traits@D@std@@@std@@YAAEAV?$basic_ostream@DU?$char_traits@D@std@@@0@AEAV10@PEBD@Z DD 019930522H
	DD	03H
	DD	imagerel $stateUnwindMap$??$?6U?$char_traits@D@std@@@std@@YAAEAV?$basic_ostream@DU?$char_traits@D@std@@@0@AEAV10@PEBD@Z
	DD	01H
	DD	imagerel $tryMap$??$?6U?$char_traits@D@std@@@std@@YAAEAV?$basic_ostream@DU?$char_traits@D@std@@@0@AEAV10@PEBD@Z
	DD	08H
	DD	imagerel $ip2state$??$?6U?$char_traits@D@std@@@std@@YAAEAV?$basic_ostream@DU?$char_traits@D@std@@@0@AEAV10@PEBD@Z
	DD	0218H
	DD	00H
	DD	01H
CONST	ENDS
;	COMDAT xdata
xdata	SEGMENT
$unwind$?catch$1@?0???$?6U?$char_traits@D@std@@@std@@YAAEAV?$basic_ostream@DU?$char_traits@D@std@@@0@AEAV10@D@Z@4HA DD 031019H
	DD	0700c4210H
	DD	0500bH
	DD	imagerel __CxxFrameHandler3
	DD	imagerel $cppxdata$??$?6U?$char_traits@D@std@@@std@@YAAEAV?$basic_ostream@DU?$char_traits@D@std@@@0@AEAV10@D@Z
xdata	ENDS
;	COMDAT xdata
xdata	SEGMENT
$unwind$?dtor$0@?0???$?6U?$char_traits@D@std@@@std@@YAAEAV?$basic_ostream@DU?$char_traits@D@std@@@0@AEAV10@D@Z@4HA DD 031001H
	DD	0700c4210H
	DD	0500bH
xdata	ENDS
;	COMDAT xdata
xdata	SEGMENT
$ip2state$??$?6U?$char_traits@D@std@@@std@@YAAEAV?$basic_ostream@DU?$char_traits@D@std@@@0@AEAV10@D@Z DD imagerel ??$?6U?$char_traits@D@std@@@std@@YAAEAV?$basic_ostream@DU?$char_traits@D@std@@@0@AEAV10@D@Z
	DD	0ffffffffH
	DD	imagerel ??$?6U?$char_traits@D@std@@@std@@YAAEAV?$basic_ostream@DU?$char_traits@D@std@@@0@AEAV10@D@Z+81
	DD	00H
	DD	imagerel ??$?6U?$char_traits@D@std@@@std@@YAAEAV?$basic_ostream@DU?$char_traits@D@std@@@0@AEAV10@D@Z+213
	DD	01H
	DD	imagerel ??$?6U?$char_traits@D@std@@@std@@YAAEAV?$basic_ostream@DU?$char_traits@D@std@@@0@AEAV10@D@Z+824
	DD	00H
	DD	imagerel ??$?6U?$char_traits@D@std@@@std@@YAAEAV?$basic_ostream@DU?$char_traits@D@std@@@0@AEAV10@D@Z+920
	DD	0ffffffffH
	DD	imagerel ?catch$1@?0???$?6U?$char_traits@D@std@@@std@@YAAEAV?$basic_ostream@DU?$char_traits@D@std@@@0@AEAV10@D@Z@4HA
	DD	00H
	DD	imagerel ?catch$1@?0???$?6U?$char_traits@D@std@@@std@@YAAEAV?$basic_ostream@DU?$char_traits@D@std@@@0@AEAV10@D@Z@4HA+20
	DD	02H
	DD	imagerel ?catch$1@?0???$?6U?$char_traits@D@std@@@std@@YAAEAV?$basic_ostream@DU?$char_traits@D@std@@@0@AEAV10@D@Z@4HA+65
	DD	00H
xdata	ENDS
;	COMDAT xdata
xdata	SEGMENT
$handlerMap$0$??$?6U?$char_traits@D@std@@@std@@YAAEAV?$basic_ostream@DU?$char_traits@D@std@@@0@AEAV10@D@Z DD 040H
	DD	00H
	DD	00H
	DD	imagerel ?catch$1@?0???$?6U?$char_traits@D@std@@@std@@YAAEAV?$basic_ostream@DU?$char_traits@D@std@@@0@AEAV10@D@Z@4HA
	DD	048H
xdata	ENDS
;	COMDAT xdata
xdata	SEGMENT
$tryMap$??$?6U?$char_traits@D@std@@@std@@YAAEAV?$basic_ostream@DU?$char_traits@D@std@@@0@AEAV10@D@Z DD 01H
	DD	01H
	DD	02H
	DD	01H
	DD	imagerel $handlerMap$0$??$?6U?$char_traits@D@std@@@std@@YAAEAV?$basic_ostream@DU?$char_traits@D@std@@@0@AEAV10@D@Z
xdata	ENDS
;	COMDAT xdata
xdata	SEGMENT
$stateUnwindMap$??$?6U?$char_traits@D@std@@@std@@YAAEAV?$basic_ostream@DU?$char_traits@D@std@@@0@AEAV10@D@Z DD 0ffffffffH
	DD	imagerel ?dtor$0@?0???$?6U?$char_traits@D@std@@@std@@YAAEAV?$basic_ostream@DU?$char_traits@D@std@@@0@AEAV10@D@Z@4HA
	DD	00H
	DD	00H
	DD	00H
	DD	00H
xdata	ENDS
;	COMDAT xdata
xdata	SEGMENT
$unwind$??$?6U?$char_traits@D@std@@@std@@YAAEAV?$basic_ostream@DU?$char_traits@D@std@@@0@AEAV10@D@Z DD 025053919H
	DD	01122317H
	DD	0700b004dH
	DD	0500aH
	DD	imagerel __CxxFrameHandler3
	DD	imagerel $cppxdata$??$?6U?$char_traits@D@std@@@std@@YAAEAV?$basic_ostream@DU?$char_traits@D@std@@@0@AEAV10@D@Z
xdata	ENDS
;	COMDAT CONST
CONST	SEGMENT
??$?6U?$char_traits@D@std@@@std@@YAAEAV?$basic_ostream@DU?$char_traits@D@std@@@0@AEAV10@D@Z$rtcName$0 DB 05fH ; std::operator<<<std::char_traits<char> >
	DB	04fH
	DB	06bH
	DB	00H
	ORG $+12
??$?6U?$char_traits@D@std@@@std@@YAAEAV?$basic_ostream@DU?$char_traits@D@std@@@0@AEAV10@D@Z$rtcVarDesc DD 048H ; std::operator<<<std::char_traits<char> >
	DD	010H
	DQ	FLAT:??$?6U?$char_traits@D@std@@@std@@YAAEAV?$basic_ostream@DU?$char_traits@D@std@@@0@AEAV10@D@Z$rtcName$0
	ORG $+48
??$?6U?$char_traits@D@std@@@std@@YAAEAV?$basic_ostream@DU?$char_traits@D@std@@@0@AEAV10@D@Z$rtcFrameData DD 01H ; std::operator<<<std::char_traits<char> >
	DD	00H
	DQ	FLAT:??$?6U?$char_traits@D@std@@@std@@YAAEAV?$basic_ostream@DU?$char_traits@D@std@@@0@AEAV10@D@Z$rtcVarDesc
$cppxdata$??$?6U?$char_traits@D@std@@@std@@YAAEAV?$basic_ostream@DU?$char_traits@D@std@@@0@AEAV10@D@Z DD 019930522H
	DD	03H
	DD	imagerel $stateUnwindMap$??$?6U?$char_traits@D@std@@@std@@YAAEAV?$basic_ostream@DU?$char_traits@D@std@@@0@AEAV10@D@Z
	DD	01H
	DD	imagerel $tryMap$??$?6U?$char_traits@D@std@@@std@@YAAEAV?$basic_ostream@DU?$char_traits@D@std@@@0@AEAV10@D@Z
	DD	08H
	DD	imagerel $ip2state$??$?6U?$char_traits@D@std@@@std@@YAAEAV?$basic_ostream@DU?$char_traits@D@std@@@0@AEAV10@D@Z
	DD	0238H
	DD	00H
	DD	01H
CONST	ENDS
;	COMDAT xdata
xdata	SEGMENT
$unwind$?catch$1@?0??selection@@YAXXZ@4HA DD 031019H
	DD	0700c4210H
	DD	0500bH
	DD	imagerel __CxxFrameHandler3
	DD	imagerel $cppxdata$?selection@@YAXXZ
xdata	ENDS
;	COMDAT xdata
xdata	SEGMENT
$unwind$?catch$0@?0??selection@@YAXXZ@4HA DD 031019H
	DD	0700c4210H
	DD	0500bH
	DD	imagerel __CxxFrameHandler3
	DD	imagerel $cppxdata$?selection@@YAXXZ
xdata	ENDS
;	COMDAT xdata
xdata	SEGMENT
$ip2state$?selection@@YAXXZ DD imagerel ?selection@@YAXXZ
	DD	0ffffffffH
	DD	imagerel ?selection@@YAXXZ+71
	DD	00H
	DD	imagerel ?selection@@YAXXZ+210
	DD	0ffffffffH
	DD	imagerel ?catch$0@?0??selection@@YAXXZ@4HA
	DD	00H
	DD	imagerel ?catch$0@?0??selection@@YAXXZ@4HA+20
	DD	01H
	DD	imagerel ?catch$0@?0??selection@@YAXXZ@4HA+47
	DD	00H
	DD	imagerel ?catch$1@?0??selection@@YAXXZ@4HA+20
	DD	01H
	DD	imagerel ?catch$1@?0??selection@@YAXXZ@4HA+57
	DD	00H
xdata	ENDS
;	COMDAT xdata
xdata	SEGMENT
$handlerMap$0$?selection@@YAXXZ DD 00H
	DD	imagerel ??_R0PEAD@8
	DD	048H
	DD	imagerel ?catch$0@?0??selection@@YAXXZ@4HA
	DD	048H
	DD	00H
	DD	imagerel ??_R0H@8
	DD	064H
	DD	imagerel ?catch$1@?0??selection@@YAXXZ@4HA
	DD	048H
xdata	ENDS
;	COMDAT xdata
xdata	SEGMENT
$tryMap$?selection@@YAXXZ DD 00H
	DD	00H
	DD	01H
	DD	02H
	DD	imagerel $handlerMap$0$?selection@@YAXXZ
xdata	ENDS
;	COMDAT xdata
xdata	SEGMENT
$stateUnwindMap$?selection@@YAXXZ DD 0ffffffffH
	DD	00H
	DD	0ffffffffH
	DD	00H
xdata	ENDS
;	COMDAT xdata
xdata	SEGMENT
$unwind$?selection@@YAXXZ DD 025052919H
	DD	010a230fH
	DD	070030035H
	DD	05002H
	DD	imagerel __CxxFrameHandler3
	DD	imagerel $cppxdata$?selection@@YAXXZ
xdata	ENDS
;	COMDAT CONST
CONST	SEGMENT
?selection@@YAXXZ$rtcName$0 DB 063H			; selection
	DB	068H
	DB	06fH
	DB	06fH
	DB	073H
	DB	065H
	DB	00H
	ORG $+1
?selection@@YAXXZ$rtcName$1 DB 06dH			; selection
	DB	073H
	DB	067H
	DB	00H
?selection@@YAXXZ$rtcName$2 DB 078H			; selection
	DB	00H
	ORG $+2
?selection@@YAXXZ$rtcVarDesc DD 064H			; selection
	DD	04H
	DQ	FLAT:?selection@@YAXXZ$rtcName$2
	DD	048H
	DD	08H
	DQ	FLAT:?selection@@YAXXZ$rtcName$1
	DD	024H
	DD	04H
	DQ	FLAT:?selection@@YAXXZ$rtcName$0
	ORG $+144
?selection@@YAXXZ$rtcFrameData DD 03H			; selection
	DD	00H
	DQ	FLAT:?selection@@YAXXZ$rtcVarDesc
$cppxdata$?selection@@YAXXZ DD 019930522H
	DD	02H
	DD	imagerel $stateUnwindMap$?selection@@YAXXZ
	DD	01H
	DD	imagerel $tryMap$?selection@@YAXXZ
	DD	08H
	DD	imagerel $ip2state$?selection@@YAXXZ
	DD	0188H
	DD	00H
	DD	01H
CONST	ENDS
;	COMDAT xdata
xdata	SEGMENT
$unwind$?eof@?$char_traits@D@std@@SAHXZ DD 05051c01H
	DD	010a030dH
	DD	070030019H
	DD	05002H
xdata	ENDS
;	COMDAT xdata
xdata	SEGMENT
$unwind$?eq_int_type@?$char_traits@D@std@@SA_NAEBH0@Z DD 05052d01H
	DD	01130316H
	DD	0700c001bH
	DD	0500bH
xdata	ENDS
;	COMDAT xdata
xdata	SEGMENT
$unwind$?length@?$char_traits@D@std@@SA_KQEBD@Z DD 025052a01H
	DD	010e2313H
	DD	07007001dH
	DD	05006H
xdata	ENDS
;	COMDAT xdata
xdata	SEGMENT
$unwind$?pow@@YANNH@Z DD 035052701H
	DD	01133318H
	DD	0700c001fH
	DD	0500bH
xdata	ENDS
;	COMDAT xdata
xdata	SEGMENT
$unwind$?__empty_global_delete@@YAXPEAX_K@Z DD 05052d01H
	DD	01130316H
	DD	0700c0019H
	DD	0500bH
xdata	ENDS
;	COMDAT xdata
xdata	SEGMENT
$unwind$?__empty_global_delete@@YAXPEAX@Z DD 05052801H
	DD	010e0311H
	DD	070070019H
	DD	05006H
xdata	ENDS
; Function compile flags: /Odtp /RTCsu /ZI
; File c:\program files (x86)\microsoft visual studio\2017\enterprise\vc\tools\msvc\14.14.26428\include\ostream
;	COMDAT ??Bsentry@?$basic_ostream@DU?$char_traits@D@std@@@std@@QEBA_NXZ
_TEXT	SEGMENT
this$ = 224
??Bsentry@?$basic_ostream@DU?$char_traits@D@std@@@std@@QEBA_NXZ PROC ; std::basic_ostream<char,std::char_traits<char> >::sentry::operator bool, COMDAT

; 152  : 			{	// test if stream state okay

$LN3:
	mov	QWORD PTR [rsp+8], rcx
	push	rbp
	push	rdi
	sub	rsp, 200				; 000000c8H
	mov	rbp, rsp
	mov	rdi, rsp
	mov	ecx, 50					; 00000032H
	mov	eax, -858993460				; ccccccccH
	rep stosd
	mov	rcx, QWORD PTR [rsp+232]

; 153  : 			return (_Ok);

	mov	rax, QWORD PTR this$[rbp]
	movzx	eax, BYTE PTR [rax+8]

; 154  : 			}

	lea	rsp, QWORD PTR [rbp+200]
	pop	rdi
	pop	rbp
	ret	0
??Bsentry@?$basic_ostream@DU?$char_traits@D@std@@@std@@QEBA_NXZ ENDP ; std::basic_ostream<char,std::char_traits<char> >::sentry::operator bool
_TEXT	ENDS
; Function compile flags: /Odtp /RTCsu /ZI
; File c:\program files (x86)\microsoft visual studio\2017\enterprise\vc\tools\msvc\14.14.26428\include\ostream
;	COMDAT ??1sentry@?$basic_ostream@DU?$char_traits@D@std@@@std@@QEAA@XZ
_TEXT	SEGMENT
$T1 = 200
this$ = 256
??1sentry@?$basic_ostream@DU?$char_traits@D@std@@@std@@QEAA@XZ PROC ; std::basic_ostream<char,std::char_traits<char> >::sentry::~sentry, COMDAT

; 135  : 			{	// destroy the object

$LN4:
	mov	QWORD PTR [rsp+8], rcx
	push	rbp
	push	rdi
	sub	rsp, 264				; 00000108H
	lea	rbp, QWORD PTR [rsp+32]
	mov	rdi, rsp
	mov	ecx, 66					; 00000042H
	mov	eax, -858993460				; ccccccccH
	rep stosd
	mov	rcx, QWORD PTR [rsp+296]
	mov	QWORD PTR $T1[rbp], -2

; 136  :  #if _HAS_EXCEPTIONS
; 137  : 			if (!_STD uncaught_exception())	// TRANSITION, OS#15518458

	call	?uncaught_exception@std@@YA_NXZ		; std::uncaught_exception
	npad	1
	movzx	eax, al
	test	eax, eax
	jne	SHORT $LN2@sentry

; 138  : 				{
; 139  : 				this->_Myostr._Osfx();

	mov	rax, QWORD PTR this$[rbp]
	mov	rcx, QWORD PTR [rax]
	call	QWORD PTR __imp_?_Osfx@?$basic_ostream@DU?$char_traits@D@std@@@std@@QEAAXXZ
	npad	1
$LN2@sentry:

; 140  : 				}
; 141  :  #else /* _HAS_EXCEPTIONS */
; 142  : 			this->_Myostr._Osfx();
; 143  :  #endif /* _HAS_EXCEPTIONS */
; 144  : 			}

	mov	rcx, QWORD PTR this$[rbp]
	call	??1_Sentry_base@?$basic_ostream@DU?$char_traits@D@std@@@std@@QEAA@XZ ; std::basic_ostream<char,std::char_traits<char> >::_Sentry_base::~_Sentry_base
	npad	1
	lea	rsp, QWORD PTR [rbp+232]
	pop	rdi
	pop	rbp
	ret	0
??1sentry@?$basic_ostream@DU?$char_traits@D@std@@@std@@QEAA@XZ ENDP ; std::basic_ostream<char,std::char_traits<char> >::sentry::~sentry
_TEXT	ENDS
; Function compile flags: /Odtp /RTCsu /ZI
; File c:\program files (x86)\microsoft visual studio\2017\enterprise\vc\tools\msvc\14.14.26428\include\ostream
;	COMDAT ??0sentry@?$basic_ostream@DU?$char_traits@D@std@@@std@@QEAA@AEAV12@@Z
_TEXT	SEGMENT
$T1 = 200
this$ = 256
_Ostr$ = 264
??0sentry@?$basic_ostream@DU?$char_traits@D@std@@@std@@QEAA@AEAV12@@Z PROC ; std::basic_ostream<char,std::char_traits<char> >::sentry::sentry, COMDAT

; 121  : 			{	// construct locking and testing stream

$LN5:
	mov	QWORD PTR [rsp+16], rdx
	mov	QWORD PTR [rsp+8], rcx
	push	rbp
	push	rdi
	sub	rsp, 264				; 00000108H
	lea	rbp, QWORD PTR [rsp+32]
	mov	rdi, rsp
	mov	ecx, 66					; 00000042H
	mov	eax, -858993460				; ccccccccH
	rep stosd
	mov	rcx, QWORD PTR [rsp+296]
	mov	QWORD PTR $T1[rbp], -2

; 120  : 			: _Sentry_base(_Ostr)

	mov	rdx, QWORD PTR _Ostr$[rbp]
	mov	rcx, QWORD PTR this$[rbp]
	call	??0_Sentry_base@?$basic_ostream@DU?$char_traits@D@std@@@std@@QEAA@AEAV12@@Z ; std::basic_ostream<char,std::char_traits<char> >::_Sentry_base::_Sentry_base
	npad	1

; 122  : 			if (_Ostr.good() && _Ostr.tie() != 0 && _Ostr.tie() != &_Ostr)

	mov	rax, QWORD PTR _Ostr$[rbp]
	mov	rax, QWORD PTR [rax]
	movsxd	rax, DWORD PTR [rax+4]
	mov	rcx, QWORD PTR _Ostr$[rbp]
	add	rcx, rax
	mov	rax, rcx
	mov	rcx, rax
	call	QWORD PTR __imp_?good@ios_base@std@@QEBA_NXZ
	movzx	eax, al
	test	eax, eax
	je	$LN2@sentry
	mov	rax, QWORD PTR _Ostr$[rbp]
	mov	rax, QWORD PTR [rax]
	movsxd	rax, DWORD PTR [rax+4]
	mov	rcx, QWORD PTR _Ostr$[rbp]
	add	rcx, rax
	mov	rax, rcx
	mov	rcx, rax
	call	QWORD PTR __imp_?tie@?$basic_ios@DU?$char_traits@D@std@@@std@@QEBAPEAV?$basic_ostream@DU?$char_traits@D@std@@@2@XZ
	test	rax, rax
	je	SHORT $LN2@sentry
	mov	rax, QWORD PTR _Ostr$[rbp]
	mov	rax, QWORD PTR [rax]
	movsxd	rax, DWORD PTR [rax+4]
	mov	rcx, QWORD PTR _Ostr$[rbp]
	add	rcx, rax
	mov	rax, rcx
	mov	rcx, rax
	call	QWORD PTR __imp_?tie@?$basic_ios@DU?$char_traits@D@std@@@std@@QEBAPEAV?$basic_ostream@DU?$char_traits@D@std@@@2@XZ
	cmp	rax, QWORD PTR _Ostr$[rbp]
	je	SHORT $LN2@sentry

; 123  : 				_Ostr.tie()->flush();

	mov	rax, QWORD PTR _Ostr$[rbp]
	mov	rax, QWORD PTR [rax]
	movsxd	rax, DWORD PTR [rax+4]
	mov	rcx, QWORD PTR _Ostr$[rbp]
	add	rcx, rax
	mov	rax, rcx
	mov	rcx, rax
	call	QWORD PTR __imp_?tie@?$basic_ios@DU?$char_traits@D@std@@@std@@QEBAPEAV?$basic_ostream@DU?$char_traits@D@std@@@2@XZ
	mov	rcx, rax
	call	QWORD PTR __imp_?flush@?$basic_ostream@DU?$char_traits@D@std@@@std@@QEAAAEAV12@XZ
$LN2@sentry:

; 124  : 			_Ok = _Ostr.good();	// store test only after flushing tie

	mov	rax, QWORD PTR _Ostr$[rbp]
	mov	rax, QWORD PTR [rax]
	movsxd	rax, DWORD PTR [rax+4]
	mov	rcx, QWORD PTR _Ostr$[rbp]
	add	rcx, rax
	mov	rax, rcx
	mov	rcx, rax
	call	QWORD PTR __imp_?good@ios_base@std@@QEBA_NXZ
	mov	rcx, QWORD PTR this$[rbp]
	mov	BYTE PTR [rcx+8], al

; 125  : 			}

	mov	rax, QWORD PTR this$[rbp]
	lea	rsp, QWORD PTR [rbp+232]
	pop	rdi
	pop	rbp
	ret	0
??0sentry@?$basic_ostream@DU?$char_traits@D@std@@@std@@QEAA@AEAV12@@Z ENDP ; std::basic_ostream<char,std::char_traits<char> >::sentry::sentry
_TEXT	ENDS
;	COMDAT text$x
text$x	SEGMENT
$T1 = 200
this$ = 256
_Ostr$ = 264
?dtor$0@?0???0sentry@?$basic_ostream@DU?$char_traits@D@std@@@std@@QEAA@AEAV12@@Z@4HA PROC ; `std::basic_ostream<char,std::char_traits<char> >::sentry::sentry'::`1'::dtor$0
	mov	QWORD PTR [rsp+8], rcx
	mov	QWORD PTR [rsp+16], rdx
	push	rbp
	push	rdi
	sub	rsp, 40					; 00000028H
	lea	rbp, QWORD PTR [rdx+32]
	mov	rcx, QWORD PTR this$[rbp]
	call	??1_Sentry_base@?$basic_ostream@DU?$char_traits@D@std@@@std@@QEAA@XZ ; std::basic_ostream<char,std::char_traits<char> >::_Sentry_base::~_Sentry_base
	add	rsp, 40					; 00000028H
	pop	rdi
	pop	rbp
	ret	0
?dtor$0@?0???0sentry@?$basic_ostream@DU?$char_traits@D@std@@@std@@QEAA@AEAV12@@Z@4HA ENDP ; `std::basic_ostream<char,std::char_traits<char> >::sentry::sentry'::`1'::dtor$0
text$x	ENDS
; Function compile flags: /Odtp /RTCsu /ZI
;	COMDAT text$x
text$x	SEGMENT
$T1 = 200
this$ = 256
_Ostr$ = 264
?dtor$0@?0???0sentry@?$basic_ostream@DU?$char_traits@D@std@@@std@@QEAA@AEAV12@@Z@4HA PROC ; `std::basic_ostream<char,std::char_traits<char> >::sentry::sentry'::`1'::dtor$0
	mov	QWORD PTR [rsp+8], rcx
	mov	QWORD PTR [rsp+16], rdx
	push	rbp
	push	rdi
	sub	rsp, 40					; 00000028H
	lea	rbp, QWORD PTR [rdx+32]
	mov	rcx, QWORD PTR this$[rbp]
	call	??1_Sentry_base@?$basic_ostream@DU?$char_traits@D@std@@@std@@QEAA@XZ ; std::basic_ostream<char,std::char_traits<char> >::_Sentry_base::~_Sentry_base
	add	rsp, 40					; 00000028H
	pop	rdi
	pop	rbp
	ret	0
?dtor$0@?0???0sentry@?$basic_ostream@DU?$char_traits@D@std@@@std@@QEAA@AEAV12@@Z@4HA ENDP ; `std::basic_ostream<char,std::char_traits<char> >::sentry::sentry'::`1'::dtor$0
text$x	ENDS
; Function compile flags: /Odtp /RTCsu /ZI
; File c:\program files (x86)\microsoft visual studio\2017\enterprise\vc\tools\msvc\14.14.26428\include\ostream
;	COMDAT ??1_Sentry_base@?$basic_ostream@DU?$char_traits@D@std@@@std@@QEAA@XZ
_TEXT	SEGMENT
$T1 = 200
tv87 = 216
tv72 = 216
tv94 = 224
this$ = 272
??1_Sentry_base@?$basic_ostream@DU?$char_traits@D@std@@@std@@QEAA@XZ PROC ; std::basic_ostream<char,std::char_traits<char> >::_Sentry_base::~_Sentry_base, COMDAT

; 105  : 			{	// destroy after unlocking

$LN4:
	mov	QWORD PTR [rsp+8], rcx
	push	rbp
	push	rdi
	sub	rsp, 280				; 00000118H
	lea	rbp, QWORD PTR [rsp+32]
	mov	rdi, rsp
	mov	ecx, 70					; 00000046H
	mov	eax, -858993460				; ccccccccH
	rep stosd
	mov	rcx, QWORD PTR [rsp+312]
	mov	QWORD PTR $T1[rbp], -2

; 106  : 			if (_Myostr.rdbuf() != 0)

	mov	rax, QWORD PTR this$[rbp]
	mov	rax, QWORD PTR [rax]
	mov	QWORD PTR tv72[rbp], rax
	mov	rax, QWORD PTR tv72[rbp]
	mov	rax, QWORD PTR [rax]
	movsxd	rax, DWORD PTR [rax+4]
	mov	rcx, QWORD PTR tv72[rbp]
	add	rcx, rax
	mov	rax, rcx
	mov	rcx, rax
	call	QWORD PTR __imp_?rdbuf@?$basic_ios@DU?$char_traits@D@std@@@std@@QEBAPEAV?$basic_streambuf@DU?$char_traits@D@std@@@2@XZ
	npad	1
	test	rax, rax
	je	SHORT $LN2@Sentry_bas

; 107  : 				_Myostr.rdbuf()->_Unlock();

	mov	rax, QWORD PTR this$[rbp]
	mov	rax, QWORD PTR [rax]
	mov	QWORD PTR tv87[rbp], rax
	mov	rax, QWORD PTR tv87[rbp]
	mov	rax, QWORD PTR [rax]
	movsxd	rax, DWORD PTR [rax+4]
	mov	rcx, QWORD PTR tv87[rbp]
	add	rcx, rax
	mov	rax, rcx
	mov	rcx, rax
	call	QWORD PTR __imp_?rdbuf@?$basic_ios@DU?$char_traits@D@std@@@std@@QEBAPEAV?$basic_streambuf@DU?$char_traits@D@std@@@2@XZ
	npad	1
	mov	QWORD PTR tv94[rbp], rax
	mov	rax, QWORD PTR tv94[rbp]
	mov	rax, QWORD PTR [rax]
	mov	rcx, QWORD PTR tv94[rbp]
	call	QWORD PTR [rax+16]
	npad	1
$LN2@Sentry_bas:

; 108  : 			}

	lea	rsp, QWORD PTR [rbp+248]
	pop	rdi
	pop	rbp
	ret	0
??1_Sentry_base@?$basic_ostream@DU?$char_traits@D@std@@@std@@QEAA@XZ ENDP ; std::basic_ostream<char,std::char_traits<char> >::_Sentry_base::~_Sentry_base
_TEXT	ENDS
; Function compile flags: /Odtp /RTCsu /ZI
; File c:\program files (x86)\microsoft visual studio\2017\enterprise\vc\tools\msvc\14.14.26428\include\ostream
;	COMDAT ??0_Sentry_base@?$basic_ostream@DU?$char_traits@D@std@@@std@@QEAA@AEAV12@@Z
_TEXT	SEGMENT
tv88 = 192
tv73 = 192
tv95 = 200
this$ = 240
_Ostr$ = 248
??0_Sentry_base@?$basic_ostream@DU?$char_traits@D@std@@@std@@QEAA@AEAV12@@Z PROC ; std::basic_ostream<char,std::char_traits<char> >::_Sentry_base::_Sentry_base, COMDAT

; 99   : 			{	// lock the stream buffer, if there

$LN4:
	mov	QWORD PTR [rsp+16], rdx
	mov	QWORD PTR [rsp+8], rcx
	push	rbp
	push	rdi
	sub	rsp, 248				; 000000f8H
	lea	rbp, QWORD PTR [rsp+32]
	mov	rdi, rsp
	mov	ecx, 62					; 0000003eH
	mov	eax, -858993460				; ccccccccH
	rep stosd
	mov	rcx, QWORD PTR [rsp+280]

; 98   : 			: _Myostr(_Ostr)

	mov	rax, QWORD PTR this$[rbp]
	mov	rcx, QWORD PTR _Ostr$[rbp]
	mov	QWORD PTR [rax], rcx

; 100  : 			if (_Myostr.rdbuf() != 0)

	mov	rax, QWORD PTR this$[rbp]
	mov	rax, QWORD PTR [rax]
	mov	QWORD PTR tv73[rbp], rax
	mov	rax, QWORD PTR tv73[rbp]
	mov	rax, QWORD PTR [rax]
	movsxd	rax, DWORD PTR [rax+4]
	mov	rcx, QWORD PTR tv73[rbp]
	add	rcx, rax
	mov	rax, rcx
	mov	rcx, rax
	call	QWORD PTR __imp_?rdbuf@?$basic_ios@DU?$char_traits@D@std@@@std@@QEBAPEAV?$basic_streambuf@DU?$char_traits@D@std@@@2@XZ
	test	rax, rax
	je	SHORT $LN2@Sentry_bas

; 101  : 				_Myostr.rdbuf()->_Lock();

	mov	rax, QWORD PTR this$[rbp]
	mov	rax, QWORD PTR [rax]
	mov	QWORD PTR tv88[rbp], rax
	mov	rax, QWORD PTR tv88[rbp]
	mov	rax, QWORD PTR [rax]
	movsxd	rax, DWORD PTR [rax+4]
	mov	rcx, QWORD PTR tv88[rbp]
	add	rcx, rax
	mov	rax, rcx
	mov	rcx, rax
	call	QWORD PTR __imp_?rdbuf@?$basic_ios@DU?$char_traits@D@std@@@std@@QEBAPEAV?$basic_streambuf@DU?$char_traits@D@std@@@2@XZ
	mov	QWORD PTR tv95[rbp], rax
	mov	rax, QWORD PTR tv95[rbp]
	mov	rax, QWORD PTR [rax]
	mov	rcx, QWORD PTR tv95[rbp]
	call	QWORD PTR [rax+8]
$LN2@Sentry_bas:

; 102  : 			}

	mov	rax, QWORD PTR this$[rbp]
	lea	rsp, QWORD PTR [rbp+216]
	pop	rdi
	pop	rbp
	ret	0
??0_Sentry_base@?$basic_ostream@DU?$char_traits@D@std@@@std@@QEAA@AEAV12@@Z ENDP ; std::basic_ostream<char,std::char_traits<char> >::_Sentry_base::_Sentry_base
_TEXT	ENDS
; Function compile flags: /Odtp /RTCsu /ZI
; File c:\users\dm282\source\repos\benchmarker\benchmarker\benchmarker.cpp
;	COMDAT main
_TEXT	SEGMENT
i$1 = 4
tv80 = 216
tv66 = 224
tv75 = 232
main	PROC						; COMDAT

; 119  : {

$LN6:
	push	rbp
	push	rdi
	sub	rsp, 280				; 00000118H
	lea	rbp, QWORD PTR [rsp+32]
	mov	rdi, rsp
	mov	ecx, 70					; 00000046H
	mov	eax, -858993460				; ccccccccH
	rep stosd

; 120  : 	selection();

	call	?selection@@YAXXZ			; selection

; 121  : 	mainbase();

	call	?mainbase@@YAXXZ			; mainbase

; 122  : 	for (int i = 0; i < 5; i++)

	mov	DWORD PTR i$1[rbp], 0
	jmp	SHORT $LN4@main
$LN2@main:
	mov	eax, DWORD PTR i$1[rbp]
	inc	eax
	mov	DWORD PTR i$1[rbp], eax
$LN4@main:
	cmp	DWORD PTR i$1[rbp], 5
	jge	$LN3@main

; 123  : 	{
; 124  : 		cout << "Average time taken for stage " << (i + 1) << " is " << stagetime[i] << " seconds \n";

	movsxd	rax, DWORD PTR i$1[rbp]
	mov	QWORD PTR tv80[rbp], rax
	lea	rcx, OFFSET FLAT:?stagetime@@3PANA	; stagetime
	mov	QWORD PTR tv66[rbp], rcx
	mov	edx, DWORD PTR i$1[rbp]
	inc	edx
	mov	DWORD PTR tv75[rbp], edx
	lea	rdx, OFFSET FLAT:??_C@_0BO@NKJLBHOG@Average?5time?5taken?5for?5stage?5?$AA@
	mov	rcx, QWORD PTR __imp_?cout@std@@3V?$basic_ostream@DU?$char_traits@D@std@@@1@A
	call	??$?6U?$char_traits@D@std@@@std@@YAAEAV?$basic_ostream@DU?$char_traits@D@std@@@0@AEAV10@PEBD@Z ; std::operator<<<std::char_traits<char> >
	mov	ecx, DWORD PTR tv75[rbp]
	mov	edx, ecx
	mov	rcx, rax
	call	QWORD PTR __imp_??6?$basic_ostream@DU?$char_traits@D@std@@@std@@QEAAAEAV01@H@Z
	lea	rdx, OFFSET FLAT:??_C@_04HNABGNME@?5is?5?$AA@
	mov	rcx, rax
	call	??$?6U?$char_traits@D@std@@@std@@YAAEAV?$basic_ostream@DU?$char_traits@D@std@@@0@AEAV10@PEBD@Z ; std::operator<<<std::char_traits<char> >
	mov	rdx, QWORD PTR tv66[rbp]
	mov	rcx, QWORD PTR tv80[rbp]
	movsd	xmm1, QWORD PTR [rdx+rcx*8]
	mov	rcx, rax
	call	QWORD PTR __imp_??6?$basic_ostream@DU?$char_traits@D@std@@@std@@QEAAAEAV01@N@Z
	lea	rdx, OFFSET FLAT:??_C@_0L@NPJALOFP@?5seconds?5?6?$AA@
	mov	rcx, rax
	call	??$?6U?$char_traits@D@std@@@std@@YAAEAV?$basic_ostream@DU?$char_traits@D@std@@@0@AEAV10@PEBD@Z ; std::operator<<<std::char_traits<char> >

; 125  : 	}

	jmp	$LN2@main
$LN3@main:

; 126  : 	cout << "Your system has scored a total of " << totalscore << " points!" << '\n';

	lea	rdx, OFFSET FLAT:??_C@_0CD@BOJLJHDN@Your?5system?5has?5scored?5a?5total?5o@
	mov	rcx, QWORD PTR __imp_?cout@std@@3V?$basic_ostream@DU?$char_traits@D@std@@@1@A
	call	??$?6U?$char_traits@D@std@@@std@@YAAEAV?$basic_ostream@DU?$char_traits@D@std@@@0@AEAV10@PEBD@Z ; std::operator<<<std::char_traits<char> >
	movss	xmm1, DWORD PTR ?totalscore@@3MA	; totalscore
	mov	rcx, rax
	call	QWORD PTR __imp_??6?$basic_ostream@DU?$char_traits@D@std@@@std@@QEAAAEAV01@M@Z
	lea	rdx, OFFSET FLAT:??_C@_08HNCFKHPB@?5points?$CB?$AA@
	mov	rcx, rax
	call	??$?6U?$char_traits@D@std@@@std@@YAAEAV?$basic_ostream@DU?$char_traits@D@std@@@0@AEAV10@PEBD@Z ; std::operator<<<std::char_traits<char> >
	mov	dl, 10
	mov	rcx, rax
	call	??$?6U?$char_traits@D@std@@@std@@YAAEAV?$basic_ostream@DU?$char_traits@D@std@@@0@AEAV10@D@Z ; std::operator<<<std::char_traits<char> >

; 127  : 	system("pause");

	lea	rcx, OFFSET FLAT:??_C@_05PDJBBECF@pause?$AA@
	call	QWORD PTR __imp_system

; 128  : }

	xor	eax, eax
	lea	rsp, QWORD PTR [rbp+248]
	pop	rdi
	pop	rbp
	ret	0
main	ENDP
_TEXT	ENDS
; Function compile flags: /Odtp /RTCsu /ZI
; File c:\users\dm282\source\repos\benchmarker\benchmarker\benchmarker.cpp
;	COMDAT ?mainbase@@YAXXZ
_TEXT	SEGMENT
count$ = 4
timetake$ = 40
q$4 = 100
p$5 = 132
begin$6 = 164
end$7 = 196
elapsed_secs$8 = 232
r$9 = 260
tv205 = 468
tv190 = 472
__$ArrayPad$ = 480
?mainbase@@YAXXZ PROC					; mainbase, COMDAT

; 44   : {

$LN32:
	push	rbp
	push	rdi
	sub	rsp, 536				; 00000218H
	lea	rbp, QWORD PTR [rsp+32]
	mov	rdi, rsp
	mov	ecx, 134				; 00000086H
	mov	eax, -858993460				; ccccccccH
	rep stosd
	mov	rax, QWORD PTR __security_cookie
	xor	rax, rbp
	mov	QWORD PTR __$ArrayPad$[rbp], rax

; 45   : 	long count;
; 46   : 	double timetake[5];
; 47   : 	// check is meant to find out if we should also include an explaination as to why a triplet is indeed a Pythagorean one.
; 48   : 	// D will represent C for greatest pythagorean triplet purposes.
; 49   : 	// k is the number which the user will enter. This value limits the value of a and b through which the program can search.
; 50   : 	for (int q = 1; q <= 5; q++)

	mov	DWORD PTR q$4[rbp], 1
	jmp	SHORT $LN4@mainbase
$LN2@mainbase:
	mov	eax, DWORD PTR q$4[rbp]
	inc	eax
	mov	DWORD PTR q$4[rbp], eax
$LN4@mainbase:
	cmp	DWORD PTR q$4[rbp], 5
	jg	$LN3@mainbase

; 51   : 	{
; 52   : 		for (int p = 1; p <= 5; p++)

	mov	DWORD PTR p$5[rbp], 1
	jmp	SHORT $LN7@mainbase
$LN5@mainbase:
	mov	eax, DWORD PTR p$5[rbp]
	inc	eax
	mov	DWORD PTR p$5[rbp], eax
$LN7@mainbase:
	cmp	DWORD PTR p$5[rbp], 5
	jg	$LN6@mainbase

; 53   : 		{
; 54   : 			clock_t begin = clock();

	call	QWORD PTR __imp_clock
	mov	DWORD PTR begin$6[rbp], eax

; 55   : 			a = 1;

	movsd	xmm0, QWORD PTR __real@3ff0000000000000
	movsd	QWORD PTR ?a@@3NA, xmm0			; a

; 56   : 			b = 1;

	movsd	xmm0, QWORD PTR __real@3ff0000000000000
	movsd	QWORD PTR ?b@@3NA, xmm0			; b

; 57   : 			c = 1;

	movsd	xmm0, QWORD PTR __real@3ff0000000000000
	movsd	QWORD PTR ?c@@3NA, xmm0			; c

; 58   : 			d = 1;

	movsd	xmm0, QWORD PTR __real@3ff0000000000000
	movsd	QWORD PTR ?d@@3NA, xmm0			; d

; 59   : 			count = 0;// a and b are the base/height.

	mov	DWORD PTR count$[rbp], 0

; 60   : 			if (p == 1)

	cmp	DWORD PTR p$5[rbp], 1
	jne	SHORT $LN14@mainbase

; 61   : 				k = 100;

	movsd	xmm0, QWORD PTR __real@4059000000000000
	movsd	QWORD PTR ?k@@3NA, xmm0			; k
	jmp	SHORT $LN15@mainbase
$LN14@mainbase:

; 62   : 			else if (p == 2)

	cmp	DWORD PTR p$5[rbp], 2
	jne	SHORT $LN16@mainbase

; 63   : 				k = 250;

	movsd	xmm0, QWORD PTR __real@406f400000000000
	movsd	QWORD PTR ?k@@3NA, xmm0			; k
	jmp	SHORT $LN17@mainbase
$LN16@mainbase:

; 64   : 			else if (p == 3)

	cmp	DWORD PTR p$5[rbp], 3
	jne	SHORT $LN18@mainbase

; 65   : 				k = 500;

	movsd	xmm0, QWORD PTR __real@407f400000000000
	movsd	QWORD PTR ?k@@3NA, xmm0			; k
	jmp	SHORT $LN19@mainbase
$LN18@mainbase:

; 66   : 			else if (p == 4)

	cmp	DWORD PTR p$5[rbp], 4
	jne	SHORT $LN20@mainbase

; 67   : 				k = 1000;

	movsd	xmm0, QWORD PTR __real@408f400000000000
	movsd	QWORD PTR ?k@@3NA, xmm0			; k
	jmp	SHORT $LN21@mainbase
$LN20@mainbase:

; 68   : 			else if (p == 5)

	cmp	DWORD PTR p$5[rbp], 5
	jne	SHORT $LN22@mainbase

; 69   : 				k = 1500;

	movsd	xmm0, QWORD PTR __real@4097700000000000
	movsd	QWORD PTR ?k@@3NA, xmm0			; k
$LN22@mainbase:
$LN21@mainbase:
$LN19@mainbase:
$LN17@mainbase:
$LN15@mainbase:
$LN8@mainbase:

; 70   : 			while (b <= k)

	movsd	xmm0, QWORD PTR ?k@@3NA			; k
	comisd	xmm0, QWORD PTR ?b@@3NA			; b
	jb	$LN9@mainbase
$LN10@mainbase:

; 71   : 			{
; 72   : 				while (a <= k)

	movsd	xmm0, QWORD PTR ?k@@3NA			; k
	comisd	xmm0, QWORD PTR ?a@@3NA			; a
	jb	$LN11@mainbase

; 73   : 				{
; 74   : 					x = a*a;

	movsd	xmm0, QWORD PTR ?a@@3NA			; a
	mulsd	xmm0, QWORD PTR ?a@@3NA			; a
	movsd	QWORD PTR ?x@@3NA, xmm0			; x

; 75   : 					y = b*b;

	movsd	xmm0, QWORD PTR ?b@@3NA			; b
	mulsd	xmm0, QWORD PTR ?b@@3NA			; b
	movsd	QWORD PTR ?y@@3NA, xmm0			; y

; 76   : 					c = x + y;

	movsd	xmm0, QWORD PTR ?x@@3NA			; x
	addsd	xmm0, QWORD PTR ?y@@3NA			; y
	movsd	QWORD PTR ?c@@3NA, xmm0			; c

; 77   : 					powcheck = b;	// b as starting point. Meant to speed up execution

	movsd	xmm0, QWORD PTR ?b@@3NA			; b
	movsd	QWORD PTR ?powcheck@@3NA, xmm0		; powcheck
$LN12@mainbase:

; 78   : 					while (powcheck <= ceil(1.42*k)) // Max value of c with relation to a and b is c = root2 of a , b

	movsd	xmm0, QWORD PTR __real@3ff6b851eb851eb8
	mulsd	xmm0, QWORD PTR ?k@@3NA			; k
	call	QWORD PTR __imp_ceil
	comisd	xmm0, QWORD PTR ?powcheck@@3NA		; powcheck
	jb	$LN13@mainbase

; 79   : 					{
; 80   : 						if (c == pow(powcheck, 2))

	mov	edx, 2
	movsd	xmm0, QWORD PTR ?powcheck@@3NA		; powcheck
	call	?pow@@YANNH@Z				; pow
	movsd	xmm1, QWORD PTR ?c@@3NA			; c
	ucomisd	xmm1, xmm0
	jp	SHORT $LN23@mainbase
	jne	SHORT $LN23@mainbase

; 81   : 						{
; 82   : 							if (c >= d)

	movsd	xmm0, QWORD PTR ?c@@3NA			; c
	comisd	xmm0, QWORD PTR ?d@@3NA			; d
	jb	SHORT $LN25@mainbase

; 83   : 								d = c;

	movsd	xmm0, QWORD PTR ?c@@3NA			; c
	movsd	QWORD PTR ?d@@3NA, xmm0			; d
$LN25@mainbase:

; 84   : 							++count;

	mov	eax, DWORD PTR count$[rbp]
	inc	eax
	mov	DWORD PTR count$[rbp], eax

; 85   : 							powcheck = 2 * k + 1;

	movsd	xmm0, QWORD PTR __real@4000000000000000
	mulsd	xmm0, QWORD PTR ?k@@3NA			; k
	addsd	xmm0, QWORD PTR __real@3ff0000000000000
	movsd	QWORD PTR ?powcheck@@3NA, xmm0		; powcheck

; 86   : 						}
; 87   : 						else

	jmp	SHORT $LN24@mainbase
$LN23@mainbase:

; 88   : 						++powcheck;

	movsd	xmm0, QWORD PTR ?powcheck@@3NA		; powcheck
	addsd	xmm0, QWORD PTR __real@3ff0000000000000
	movsd	QWORD PTR ?powcheck@@3NA, xmm0		; powcheck
$LN24@mainbase:

; 89   : 					}

	jmp	$LN12@mainbase
$LN13@mainbase:

; 90   : 					++a;

	movsd	xmm0, QWORD PTR ?a@@3NA			; a
	addsd	xmm0, QWORD PTR __real@3ff0000000000000
	movsd	QWORD PTR ?a@@3NA, xmm0			; a

; 91   : 				}

	jmp	$LN10@mainbase
$LN11@mainbase:

; 92   : 				a = 1;

	movsd	xmm0, QWORD PTR __real@3ff0000000000000
	movsd	QWORD PTR ?a@@3NA, xmm0			; a

; 93   : 				++b;

	movsd	xmm0, QWORD PTR ?b@@3NA			; b
	addsd	xmm0, QWORD PTR __real@3ff0000000000000
	movsd	QWORD PTR ?b@@3NA, xmm0			; b

; 94   : 			}

	jmp	$LN8@mainbase
$LN9@mainbase:

; 95   : 			clock_t end = clock();

	call	QWORD PTR __imp_clock
	mov	DWORD PTR end$7[rbp], eax

; 96   : 			double elapsed_secs = double(end - begin) / CLOCKS_PER_SEC;

	mov	eax, DWORD PTR begin$6[rbp]
	mov	ecx, DWORD PTR end$7[rbp]
	sub	ecx, eax
	mov	eax, ecx
	cvtsi2sd xmm0, eax
	divsd	xmm0, QWORD PTR __real@408f400000000000
	movsd	QWORD PTR elapsed_secs$8[rbp], xmm0

; 97   : 			timetake[p - 1] = elapsed_secs;

	mov	eax, DWORD PTR p$5[rbp]
	dec	eax
	cdqe
	movsd	xmm0, QWORD PTR elapsed_secs$8[rbp]
	movsd	QWORD PTR timetake$[rbp+rax*8], xmm0

; 98   : 			float r;
; 99   : 			if (p == 1)

	cmp	DWORD PTR p$5[rbp], 1
	jne	SHORT $LN26@mainbase

; 100  : 				r = 0.003;

	movss	xmm0, DWORD PTR __real@3b449ba6
	movss	DWORD PTR r$9[rbp], xmm0
$LN26@mainbase:

; 101  : 			if (p == 2)

	cmp	DWORD PTR p$5[rbp], 2
	jne	SHORT $LN27@mainbase

; 102  : 				r = 0.035;

	movss	xmm0, DWORD PTR __real@3d0f5c29
	movss	DWORD PTR r$9[rbp], xmm0
$LN27@mainbase:

; 103  : 			if (p == 3)

	cmp	DWORD PTR p$5[rbp], 3
	jne	SHORT $LN28@mainbase

; 104  : 				r = 0.273;

	movss	xmm0, DWORD PTR __real@3e8bc6a8
	movss	DWORD PTR r$9[rbp], xmm0
$LN28@mainbase:

; 105  : 			if (p == 4)

	cmp	DWORD PTR p$5[rbp], 4
	jne	SHORT $LN29@mainbase

; 106  : 				r = 2.225;

	movss	xmm0, DWORD PTR __real@400e6666
	movss	DWORD PTR r$9[rbp], xmm0
$LN29@mainbase:

; 107  : 			if (p == 5)

	cmp	DWORD PTR p$5[rbp], 5
	jne	SHORT $LN30@mainbase

; 108  : 				r = 7.536;

	movss	xmm0, DWORD PTR __real@40f126e9
	movss	DWORD PTR r$9[rbp], xmm0
$LN30@mainbase:

; 109  : 			score[p - 1] = 200 * (r / timetake[p - 1]);

	cvtss2sd xmm0, DWORD PTR r$9[rbp]
	mov	eax, DWORD PTR p$5[rbp]
	dec	eax
	cdqe
	divsd	xmm0, QWORD PTR timetake$[rbp+rax*8]
	movsd	xmm1, QWORD PTR __real@4069000000000000
	mulsd	xmm1, xmm0
	movaps	xmm0, xmm1
	cvtsd2ss xmm0, xmm0
	mov	eax, DWORD PTR p$5[rbp]
	dec	eax
	cdqe
	lea	rcx, OFFSET FLAT:?score@@3PAMA		; score
	movss	DWORD PTR [rcx+rax*4], xmm0

; 110  : 			totalscore = totalscore + (0.2*(score[p - 1]));

	cvtss2sd xmm0, DWORD PTR ?totalscore@@3MA	; totalscore
	mov	eax, DWORD PTR p$5[rbp]
	dec	eax
	cdqe
	lea	rcx, OFFSET FLAT:?score@@3PAMA		; score
	cvtss2sd xmm1, DWORD PTR [rcx+rax*4]
	movsd	xmm2, QWORD PTR __real@3fc999999999999a
	mulsd	xmm2, xmm1
	movaps	xmm1, xmm2
	addsd	xmm0, xmm1
	cvtsd2ss xmm0, xmm0
	movss	DWORD PTR ?totalscore@@3MA, xmm0	; totalscore

; 111  : 			stagetime[p - 1] = stagetime[p - 1] + 0.2*elapsed_secs;

	mov	eax, DWORD PTR p$5[rbp]
	dec	eax
	cdqe
	lea	rcx, OFFSET FLAT:?stagetime@@3PANA	; stagetime
	movsd	xmm0, QWORD PTR __real@3fc999999999999a
	mulsd	xmm0, QWORD PTR elapsed_secs$8[rbp]
	movsd	xmm1, QWORD PTR [rcx+rax*8]
	addsd	xmm1, xmm0
	movaps	xmm0, xmm1
	mov	eax, DWORD PTR p$5[rbp]
	dec	eax
	cdqe
	lea	rcx, OFFSET FLAT:?stagetime@@3PANA	; stagetime
	movsd	QWORD PTR [rcx+rax*8], xmm0

; 112  : 			cout << p * 4 + (q - 1) * 20 << " % complete!" << '\n';

	mov	eax, DWORD PTR q$4[rbp]
	dec	eax
	imul	eax, eax, 20
	mov	ecx, DWORD PTR p$5[rbp]
	lea	eax, DWORD PTR [rax+rcx*4]
	mov	edx, eax
	mov	rcx, QWORD PTR __imp_?cout@std@@3V?$basic_ostream@DU?$char_traits@D@std@@@1@A
	call	QWORD PTR __imp_??6?$basic_ostream@DU?$char_traits@D@std@@@std@@QEAAAEAV01@H@Z
	lea	rdx, OFFSET FLAT:??_C@_0N@FDENFJAP@?5?$CF?5complete?$CB?$AA@
	mov	rcx, rax
	call	??$?6U?$char_traits@D@std@@@std@@YAAEAV?$basic_ostream@DU?$char_traits@D@std@@@0@AEAV10@PEBD@Z ; std::operator<<<std::char_traits<char> >
	mov	dl, 10
	mov	rcx, rax
	call	??$?6U?$char_traits@D@std@@@std@@YAAEAV?$basic_ostream@DU?$char_traits@D@std@@@0@AEAV10@D@Z ; std::operator<<<std::char_traits<char> >

; 113  : 			cout << "Time taken for that stage:- " << timetake[p - 1] << '\n';

	mov	eax, DWORD PTR p$5[rbp]
	dec	eax
	cdqe
	mov	QWORD PTR tv190[rbp], rax
	lea	rdx, OFFSET FLAT:??_C@_0BN@KEIIGMGP@Time?5taken?5for?5that?5stage?3?9?5?$AA@
	mov	rcx, QWORD PTR __imp_?cout@std@@3V?$basic_ostream@DU?$char_traits@D@std@@@1@A
	call	??$?6U?$char_traits@D@std@@@std@@YAAEAV?$basic_ostream@DU?$char_traits@D@std@@@0@AEAV10@PEBD@Z ; std::operator<<<std::char_traits<char> >
	mov	rcx, QWORD PTR tv190[rbp]
	movsd	xmm1, QWORD PTR timetake$[rbp+rcx*8]
	mov	rcx, rax
	call	QWORD PTR __imp_??6?$basic_ostream@DU?$char_traits@D@std@@@std@@QEAAAEAV01@N@Z
	mov	dl, 10
	mov	rcx, rax
	call	??$?6U?$char_traits@D@std@@@std@@YAAEAV?$basic_ostream@DU?$char_traits@D@std@@@0@AEAV10@D@Z ; std::operator<<<std::char_traits<char> >

; 114  : 			cout << "Score obtained for that stage:- " << score[p - 1] * 5 << '\n';

	mov	eax, DWORD PTR p$5[rbp]
	dec	eax
	cdqe
	lea	rcx, OFFSET FLAT:?score@@3PAMA		; score
	movss	xmm0, DWORD PTR [rcx+rax*4]
	mulss	xmm0, DWORD PTR __real@40a00000
	movss	DWORD PTR tv205[rbp], xmm0
	lea	rdx, OFFSET FLAT:??_C@_0CB@GCCJPACJ@Score?5obtained?5for?5that?5stage?3?9?5@
	mov	rcx, QWORD PTR __imp_?cout@std@@3V?$basic_ostream@DU?$char_traits@D@std@@@1@A
	call	??$?6U?$char_traits@D@std@@@std@@YAAEAV?$basic_ostream@DU?$char_traits@D@std@@@0@AEAV10@PEBD@Z ; std::operator<<<std::char_traits<char> >
	movss	xmm0, DWORD PTR tv205[rbp]
	movaps	xmm1, xmm0
	mov	rcx, rax
	call	QWORD PTR __imp_??6?$basic_ostream@DU?$char_traits@D@std@@@std@@QEAAAEAV01@M@Z
	mov	dl, 10
	mov	rcx, rax
	call	??$?6U?$char_traits@D@std@@@std@@YAAEAV?$basic_ostream@DU?$char_traits@D@std@@@0@AEAV10@D@Z ; std::operator<<<std::char_traits<char> >

; 115  : 		}

	jmp	$LN5@mainbase
$LN6@mainbase:

; 116  : 	} 

	jmp	$LN2@mainbase
$LN3@mainbase:

; 117  : }

	lea	rcx, QWORD PTR [rbp-32]
	lea	rdx, OFFSET FLAT:?mainbase@@YAXXZ$rtcFrameData
	call	_RTC_CheckStackVars
	mov	rcx, QWORD PTR __$ArrayPad$[rbp]
	xor	rcx, rbp
	call	__security_check_cookie
	lea	rsp, QWORD PTR [rbp+504]
	pop	rdi
	pop	rbp
	ret	0
?mainbase@@YAXXZ ENDP					; mainbase
_TEXT	ENDS
; Function compile flags: /Odtp /RTCsu /ZI
; File c:\program files (x86)\microsoft visual studio\2017\enterprise\vc\tools\msvc\14.14.26428\include\ostream
;	COMDAT ??$?6U?$char_traits@D@std@@@std@@YAAEAV?$basic_ostream@DU?$char_traits@D@std@@@0@AEAV10@PEBD@Z
_TEXT	SEGMENT
_State$ = 4
_Count$ = 40
_Pad$ = 72
_Ok$ = 104
$T4 = 340
$T5 = 372
$T6 = 404
$T7 = 436
$T8 = 472
$T9 = 504
tv299 = 516
tv294 = 516
tv139 = 516
tv300 = 520
tv297 = 520
tv295 = 520
tv137 = 520
tv301 = 528
tv298 = 528
tv296 = 528
_Ostr$ = 576
_Val$ = 584
??$?6U?$char_traits@D@std@@@std@@YAAEAV?$basic_ostream@DU?$char_traits@D@std@@@0@AEAV10@PEBD@Z PROC ; std::operator<<<std::char_traits<char> >, COMDAT

; 782  : 	{	// insert NTBS into char stream

$LN25:
	mov	QWORD PTR [rsp+16], rdx
	mov	QWORD PTR [rsp+8], rcx
	push	rbp
	push	rdi
	sub	rsp, 584				; 00000248H
	lea	rbp, QWORD PTR [rsp+32]
	mov	rdi, rsp
	mov	ecx, 146				; 00000092H
	mov	eax, -858993460				; ccccccccH
	rep stosd
	mov	rcx, QWORD PTR [rsp+616]
	mov	QWORD PTR $T9[rbp], -2

; 783  : 	typedef char _Elem;
; 784  : 	typedef basic_ostream<_Elem, _Traits> _Myos;
; 785  : 	ios_base::iostate _State = ios_base::goodbit;

	mov	DWORD PTR _State$[rbp], 0

; 786  : 	streamsize _Count = (streamsize)_Traits::length(_Val);	// may overflow

	mov	rcx, QWORD PTR _Val$[rbp]
	call	?length@?$char_traits@D@std@@SA_KQEBD@Z	; std::char_traits<char>::length
	mov	QWORD PTR _Count$[rbp], rax

; 787  : 	streamsize _Pad = _Ostr.width() <= 0 || _Ostr.width() <= _Count

	mov	rax, QWORD PTR _Ostr$[rbp]
	mov	rax, QWORD PTR [rax]
	movsxd	rax, DWORD PTR [rax+4]
	mov	rcx, QWORD PTR _Ostr$[rbp]
	add	rcx, rax
	mov	rax, rcx
	mov	rcx, rax
	call	QWORD PTR __imp_?width@ios_base@std@@QEBA_JXZ
	test	rax, rax
	jle	SHORT $LN17@operator
	mov	rax, QWORD PTR _Ostr$[rbp]
	mov	rax, QWORD PTR [rax]
	movsxd	rax, DWORD PTR [rax+4]
	mov	rcx, QWORD PTR _Ostr$[rbp]
	add	rcx, rax
	mov	rax, rcx
	mov	rcx, rax
	call	QWORD PTR __imp_?width@ios_base@std@@QEBA_JXZ
	cmp	rax, QWORD PTR _Count$[rbp]
	jle	SHORT $LN17@operator
	mov	rax, QWORD PTR _Ostr$[rbp]
	mov	rax, QWORD PTR [rax]
	movsxd	rax, DWORD PTR [rax+4]
	mov	rcx, QWORD PTR _Ostr$[rbp]
	add	rcx, rax
	mov	rax, rcx
	mov	rcx, rax
	call	QWORD PTR __imp_?width@ios_base@std@@QEBA_JXZ
	sub	rax, QWORD PTR _Count$[rbp]
	mov	QWORD PTR tv137[rbp], rax
	jmp	SHORT $LN18@operator
$LN17@operator:
	mov	QWORD PTR tv137[rbp], 0
$LN18@operator:
	mov	rax, QWORD PTR tv137[rbp]
	mov	QWORD PTR _Pad$[rbp], rax

; 788  : 		? 0 : _Ostr.width() - _Count;
; 789  : 	const typename _Myos::sentry _Ok(_Ostr);

	mov	rdx, QWORD PTR _Ostr$[rbp]
	lea	rcx, QWORD PTR _Ok$[rbp]
	call	??0sentry@?$basic_ostream@DU?$char_traits@D@std@@@std@@QEAA@AEAV12@@Z ; std::basic_ostream<char,std::char_traits<char> >::sentry::sentry
	npad	1

; 790  : 
; 791  : 	if (!_Ok)

	lea	rcx, QWORD PTR _Ok$[rbp]
	call	??Bsentry@?$basic_ostream@DU?$char_traits@D@std@@@std@@QEBA_NXZ ; std::basic_ostream<char,std::char_traits<char> >::sentry::operator bool
	movzx	eax, al
	test	eax, eax
	jne	SHORT $LN8@operator

; 792  : 		_State |= ios_base::badbit;

	mov	eax, DWORD PTR _State$[rbp]
	or	eax, 4
	mov	DWORD PTR _State$[rbp], eax

; 793  : 	else

	jmp	$LN9@operator
$LN8@operator:

; 794  : 		{	// state okay, insert
; 795  : 		_TRY_IO_BEGIN
; 796  : 		if ((_Ostr.flags() & ios_base::adjustfield) != ios_base::left)

	mov	rax, QWORD PTR _Ostr$[rbp]
	mov	rax, QWORD PTR [rax]
	movsxd	rax, DWORD PTR [rax+4]
	mov	rcx, QWORD PTR _Ostr$[rbp]
	add	rcx, rax
	mov	rax, rcx
	mov	rcx, rax
	call	QWORD PTR __imp_?flags@ios_base@std@@QEBAHXZ
	mov	DWORD PTR tv139[rbp], eax
	mov	eax, DWORD PTR tv139[rbp]
	and	eax, 448				; 000001c0H
	cmp	eax, 64					; 00000040H
	je	$LN11@operator

; 797  : 			for (; 0 < _Pad; --_Pad)	// pad on left

	jmp	SHORT $LN4@operator
$LN2@operator:
	mov	rax, QWORD PTR _Pad$[rbp]
	dec	rax
	mov	QWORD PTR _Pad$[rbp], rax
$LN4@operator:
	cmp	QWORD PTR _Pad$[rbp], 0
	jle	$LN11@operator

; 798  : 				if (_Traits::eq_int_type(_Traits::eof(),

	mov	rax, QWORD PTR _Ostr$[rbp]
	mov	rax, QWORD PTR [rax]
	movsxd	rax, DWORD PTR [rax+4]
	mov	rcx, QWORD PTR _Ostr$[rbp]
	add	rcx, rax
	mov	rax, rcx
	mov	rcx, rax
	call	QWORD PTR __imp_?fill@?$basic_ios@DU?$char_traits@D@std@@@std@@QEBADXZ
	mov	BYTE PTR tv294[rbp], al
	mov	rax, QWORD PTR _Ostr$[rbp]
	mov	rax, QWORD PTR [rax]
	movsxd	rax, DWORD PTR [rax+4]
	mov	rcx, QWORD PTR _Ostr$[rbp]
	add	rcx, rax
	mov	rax, rcx
	mov	rcx, rax
	call	QWORD PTR __imp_?rdbuf@?$basic_ios@DU?$char_traits@D@std@@@std@@QEBAPEAV?$basic_streambuf@DU?$char_traits@D@std@@@2@XZ
	mov	QWORD PTR tv295[rbp], rax
	movzx	edx, BYTE PTR tv294[rbp]
	mov	rcx, QWORD PTR tv295[rbp]
	call	QWORD PTR __imp_?sputc@?$basic_streambuf@DU?$char_traits@D@std@@@std@@QEAAHD@Z
	mov	DWORD PTR tv296[rbp], eax
	mov	eax, DWORD PTR tv296[rbp]
	mov	DWORD PTR $T4[rbp], eax
	call	?eof@?$char_traits@D@std@@SAHXZ		; std::char_traits<char>::eof
	mov	DWORD PTR $T5[rbp], eax
	lea	rdx, QWORD PTR $T4[rbp]
	lea	rcx, QWORD PTR $T5[rbp]
	call	?eq_int_type@?$char_traits@D@std@@SA_NAEBH0@Z ; std::char_traits<char>::eq_int_type
	movzx	eax, al
	test	eax, eax
	je	SHORT $LN12@operator

; 799  : 					_Ostr.rdbuf()->sputc(_Ostr.fill())))
; 800  : 					{	// insertion failed, quit
; 801  : 					_State |= ios_base::badbit;

	mov	eax, DWORD PTR _State$[rbp]
	or	eax, 4
	mov	DWORD PTR _State$[rbp], eax

; 802  : 					break;

	jmp	SHORT $LN11@operator
$LN12@operator:

; 803  : 					}
; 804  : 
; 805  : 		if (_State == ios_base::goodbit

	jmp	$LN2@operator
$LN11@operator:

; 806  : 			&& _Ostr.rdbuf()->sputn(_Val, _Count) != _Count)

	cmp	DWORD PTR _State$[rbp], 0
	jne	SHORT $LN13@operator
	mov	rax, QWORD PTR _Ostr$[rbp]
	mov	rax, QWORD PTR [rax]
	movsxd	rax, DWORD PTR [rax+4]
	mov	rcx, QWORD PTR _Ostr$[rbp]
	add	rcx, rax
	mov	rax, rcx
	mov	rcx, rax
	call	QWORD PTR __imp_?rdbuf@?$basic_ios@DU?$char_traits@D@std@@@std@@QEBAPEAV?$basic_streambuf@DU?$char_traits@D@std@@@2@XZ
	mov	QWORD PTR tv297[rbp], rax
	mov	r8, QWORD PTR _Count$[rbp]
	mov	rdx, QWORD PTR _Val$[rbp]
	mov	rcx, QWORD PTR tv297[rbp]
	call	QWORD PTR __imp_?sputn@?$basic_streambuf@DU?$char_traits@D@std@@@std@@QEAA_JPEBD_J@Z
	mov	QWORD PTR tv298[rbp], rax
	mov	rax, QWORD PTR _Count$[rbp]
	cmp	QWORD PTR tv298[rbp], rax
	je	SHORT $LN13@operator

; 807  : 			_State |= ios_base::badbit;

	mov	eax, DWORD PTR _State$[rbp]
	or	eax, 4
	mov	DWORD PTR _State$[rbp], eax
$LN13@operator:

; 808  : 
; 809  : 		if (_State == ios_base::goodbit)

	cmp	DWORD PTR _State$[rbp], 0
	jne	$LN14@operator

; 810  : 			for (; 0 < _Pad; --_Pad)	// pad on right

	jmp	SHORT $LN7@operator
$LN5@operator:
	mov	rax, QWORD PTR _Pad$[rbp]
	dec	rax
	mov	QWORD PTR _Pad$[rbp], rax
$LN7@operator:
	cmp	QWORD PTR _Pad$[rbp], 0
	jle	$LN14@operator

; 811  : 				if (_Traits::eq_int_type(_Traits::eof(),

	mov	rax, QWORD PTR _Ostr$[rbp]
	mov	rax, QWORD PTR [rax]
	movsxd	rax, DWORD PTR [rax+4]
	mov	rcx, QWORD PTR _Ostr$[rbp]
	add	rcx, rax
	mov	rax, rcx
	mov	rcx, rax
	call	QWORD PTR __imp_?fill@?$basic_ios@DU?$char_traits@D@std@@@std@@QEBADXZ
	mov	BYTE PTR tv299[rbp], al
	mov	rax, QWORD PTR _Ostr$[rbp]
	mov	rax, QWORD PTR [rax]
	movsxd	rax, DWORD PTR [rax+4]
	mov	rcx, QWORD PTR _Ostr$[rbp]
	add	rcx, rax
	mov	rax, rcx
	mov	rcx, rax
	call	QWORD PTR __imp_?rdbuf@?$basic_ios@DU?$char_traits@D@std@@@std@@QEBAPEAV?$basic_streambuf@DU?$char_traits@D@std@@@2@XZ
	mov	QWORD PTR tv300[rbp], rax
	movzx	edx, BYTE PTR tv299[rbp]
	mov	rcx, QWORD PTR tv300[rbp]
	call	QWORD PTR __imp_?sputc@?$basic_streambuf@DU?$char_traits@D@std@@@std@@QEAAHD@Z
	mov	DWORD PTR tv301[rbp], eax
	mov	eax, DWORD PTR tv301[rbp]
	mov	DWORD PTR $T6[rbp], eax
	call	?eof@?$char_traits@D@std@@SAHXZ		; std::char_traits<char>::eof
	mov	DWORD PTR $T7[rbp], eax
	lea	rdx, QWORD PTR $T6[rbp]
	lea	rcx, QWORD PTR $T7[rbp]
	call	?eq_int_type@?$char_traits@D@std@@SA_NAEBH0@Z ; std::char_traits<char>::eq_int_type
	movzx	eax, al
	test	eax, eax
	je	SHORT $LN15@operator

; 812  : 					_Ostr.rdbuf()->sputc(_Ostr.fill())))
; 813  : 					{	// insertion failed, quit
; 814  : 					_State |= ios_base::badbit;

	mov	eax, DWORD PTR _State$[rbp]
	or	eax, 4
	mov	DWORD PTR _State$[rbp], eax

; 815  : 					break;

	jmp	SHORT $LN14@operator
$LN15@operator:

; 816  : 					}

	jmp	$LN5@operator
$LN14@operator:

; 817  : 		_Ostr.width(0);

	mov	rax, QWORD PTR _Ostr$[rbp]
	mov	rax, QWORD PTR [rax]
	movsxd	rax, DWORD PTR [rax+4]
	mov	rcx, QWORD PTR _Ostr$[rbp]
	add	rcx, rax
	mov	rax, rcx
	xor	edx, edx
	mov	rcx, rax
	call	QWORD PTR __imp_?width@ios_base@std@@QEAA_J_J@Z
	npad	1
	jmp	SHORT $LN9@operator
$LN23@operator:
$LN9@operator:

; 818  : 		_CATCH_IO_(_Ostr)
; 819  : 		}
; 820  : 
; 821  : 	_Ostr.setstate(_State);

	mov	rax, QWORD PTR _Ostr$[rbp]
	mov	rax, QWORD PTR [rax]
	movsxd	rax, DWORD PTR [rax+4]
	mov	rcx, QWORD PTR _Ostr$[rbp]
	add	rcx, rax
	mov	rax, rcx
	xor	r8d, r8d
	mov	edx, DWORD PTR _State$[rbp]
	mov	rcx, rax
	call	QWORD PTR __imp_?setstate@?$basic_ios@DU?$char_traits@D@std@@@std@@QEAAXH_N@Z

; 822  : 	return (_Ostr);

	mov	rax, QWORD PTR _Ostr$[rbp]
	mov	QWORD PTR $T8[rbp], rax
	lea	rcx, QWORD PTR _Ok$[rbp]
	call	??1sentry@?$basic_ostream@DU?$char_traits@D@std@@@std@@QEAA@XZ ; std::basic_ostream<char,std::char_traits<char> >::sentry::~sentry
	mov	rax, QWORD PTR $T8[rbp]

; 823  : 	}

	mov	rdi, rax
	lea	rcx, QWORD PTR [rbp-32]
	lea	rdx, OFFSET FLAT:??$?6U?$char_traits@D@std@@@std@@YAAEAV?$basic_ostream@DU?$char_traits@D@std@@@0@AEAV10@PEBD@Z$rtcFrameData
	call	_RTC_CheckStackVars
	mov	rax, rdi
	lea	rsp, QWORD PTR [rbp+552]
	pop	rdi
	pop	rbp
	ret	0
??$?6U?$char_traits@D@std@@@std@@YAAEAV?$basic_ostream@DU?$char_traits@D@std@@@0@AEAV10@PEBD@Z ENDP ; std::operator<<<std::char_traits<char> >
_TEXT	ENDS
;	COMDAT text$x
text$x	SEGMENT
_State$ = 4
_Count$ = 40
_Pad$ = 72
_Ok$ = 104
$T4 = 340
$T5 = 372
$T6 = 404
$T7 = 436
$T8 = 472
$T9 = 504
tv299 = 516
tv294 = 516
tv139 = 516
tv300 = 520
tv297 = 520
tv295 = 520
tv137 = 520
tv301 = 528
tv298 = 528
tv296 = 528
_Ostr$ = 576
_Val$ = 584
?dtor$0@?0???$?6U?$char_traits@D@std@@@std@@YAAEAV?$basic_ostream@DU?$char_traits@D@std@@@0@AEAV10@PEBD@Z@4HA PROC ; `std::operator<<<std::char_traits<char> >'::`1'::dtor$0
	mov	QWORD PTR [rsp+8], rcx
	mov	QWORD PTR [rsp+16], rdx
	push	rbp
	push	rdi
	sub	rsp, 40					; 00000028H
	lea	rbp, QWORD PTR [rdx+32]
	lea	rcx, QWORD PTR _Ok$[rbp]
	call	??1sentry@?$basic_ostream@DU?$char_traits@D@std@@@std@@QEAA@XZ ; std::basic_ostream<char,std::char_traits<char> >::sentry::~sentry
	add	rsp, 40					; 00000028H
	pop	rdi
	pop	rbp
	ret	0
?dtor$0@?0???$?6U?$char_traits@D@std@@@std@@YAAEAV?$basic_ostream@DU?$char_traits@D@std@@@0@AEAV10@PEBD@Z@4HA ENDP ; `std::operator<<<std::char_traits<char> >'::`1'::dtor$0
text$x	ENDS
;	COMDAT text$x
text$x	SEGMENT
_State$ = 4
_Count$ = 40
_Pad$ = 72
_Ok$ = 104
$T4 = 340
$T5 = 372
$T6 = 404
$T7 = 436
$T8 = 472
$T9 = 504
tv299 = 516
tv294 = 516
tv139 = 516
tv300 = 520
tv297 = 520
tv295 = 520
tv137 = 520
tv301 = 528
tv298 = 528
tv296 = 528
_Ostr$ = 576
_Val$ = 584
?catch$1@?0???$?6U?$char_traits@D@std@@@std@@YAAEAV?$basic_ostream@DU?$char_traits@D@std@@@0@AEAV10@PEBD@Z@4HA PROC ; `std::operator<<<std::char_traits<char> >'::`1'::catch$1

; 818  : 		_CATCH_IO_(_Ostr)

	mov	QWORD PTR [rsp+8], rcx
	mov	QWORD PTR [rsp+16], rdx
	push	rbp
	push	rdi
	sub	rsp, 40					; 00000028H
	lea	rbp, QWORD PTR [rdx+32]
__catch$??$?6U?$char_traits@D@std@@@std@@YAAEAV?$basic_ostream@DU?$char_traits@D@std@@@0@AEAV10@PEBD@Z$0:
	mov	rax, QWORD PTR _Ostr$[rbp]
	mov	rax, QWORD PTR [rax]
	movsxd	rax, DWORD PTR [rax+4]
	mov	rcx, QWORD PTR _Ostr$[rbp]
	add	rcx, rax
	mov	rax, rcx
	mov	r8b, 1
	mov	edx, 4
	mov	rcx, rax
	call	QWORD PTR __imp_?setstate@?$basic_ios@DU?$char_traits@D@std@@@std@@QEAAXH_N@Z
	npad	1
	lea	rax, $LN23@catch$1
	add	rsp, 40					; 00000028H
	pop	rdi
	pop	rbp
	ret	0
	int	3
?catch$1@?0???$?6U?$char_traits@D@std@@@std@@YAAEAV?$basic_ostream@DU?$char_traits@D@std@@@0@AEAV10@PEBD@Z@4HA ENDP ; `std::operator<<<std::char_traits<char> >'::`1'::catch$1
text$x	ENDS
; Function compile flags: /Odtp /RTCsu /ZI
;	COMDAT text$x
text$x	SEGMENT
_State$ = 4
_Count$ = 40
_Pad$ = 72
_Ok$ = 104
$T4 = 340
$T5 = 372
$T6 = 404
$T7 = 436
$T8 = 472
$T9 = 504
tv299 = 516
tv294 = 516
tv139 = 516
tv300 = 520
tv297 = 520
tv295 = 520
tv137 = 520
tv301 = 528
tv298 = 528
tv296 = 528
_Ostr$ = 576
_Val$ = 584
?dtor$0@?0???$?6U?$char_traits@D@std@@@std@@YAAEAV?$basic_ostream@DU?$char_traits@D@std@@@0@AEAV10@PEBD@Z@4HA PROC ; `std::operator<<<std::char_traits<char> >'::`1'::dtor$0
	mov	QWORD PTR [rsp+8], rcx
	mov	QWORD PTR [rsp+16], rdx
	push	rbp
	push	rdi
	sub	rsp, 40					; 00000028H
	lea	rbp, QWORD PTR [rdx+32]
	lea	rcx, QWORD PTR _Ok$[rbp]
	call	??1sentry@?$basic_ostream@DU?$char_traits@D@std@@@std@@QEAA@XZ ; std::basic_ostream<char,std::char_traits<char> >::sentry::~sentry
	add	rsp, 40					; 00000028H
	pop	rdi
	pop	rbp
	ret	0
?dtor$0@?0???$?6U?$char_traits@D@std@@@std@@YAAEAV?$basic_ostream@DU?$char_traits@D@std@@@0@AEAV10@PEBD@Z@4HA ENDP ; `std::operator<<<std::char_traits<char> >'::`1'::dtor$0
text$x	ENDS
; Function compile flags: /Odtp /RTCsu /ZI
;	COMDAT text$x
text$x	SEGMENT
_State$ = 4
_Count$ = 40
_Pad$ = 72
_Ok$ = 104
$T4 = 340
$T5 = 372
$T6 = 404
$T7 = 436
$T8 = 472
$T9 = 504
tv299 = 516
tv294 = 516
tv139 = 516
tv300 = 520
tv297 = 520
tv295 = 520
tv137 = 520
tv301 = 528
tv298 = 528
tv296 = 528
_Ostr$ = 576
_Val$ = 584
?catch$1@?0???$?6U?$char_traits@D@std@@@std@@YAAEAV?$basic_ostream@DU?$char_traits@D@std@@@0@AEAV10@PEBD@Z@4HA PROC ; `std::operator<<<std::char_traits<char> >'::`1'::catch$1

; 818  : 		_CATCH_IO_(_Ostr)

	mov	QWORD PTR [rsp+8], rcx
	mov	QWORD PTR [rsp+16], rdx
	push	rbp
	push	rdi
	sub	rsp, 40					; 00000028H
	lea	rbp, QWORD PTR [rdx+32]
__catch$??$?6U?$char_traits@D@std@@@std@@YAAEAV?$basic_ostream@DU?$char_traits@D@std@@@0@AEAV10@PEBD@Z$0:
	mov	rax, QWORD PTR _Ostr$[rbp]
	mov	rax, QWORD PTR [rax]
	movsxd	rax, DWORD PTR [rax+4]
	mov	rcx, QWORD PTR _Ostr$[rbp]
	add	rcx, rax
	mov	rax, rcx
	mov	r8b, 1
	mov	edx, 4
	mov	rcx, rax
	call	QWORD PTR __imp_?setstate@?$basic_ios@DU?$char_traits@D@std@@@std@@QEAAXH_N@Z
	npad	1
	lea	rax, $LN23@catch$1
	add	rsp, 40					; 00000028H
	pop	rdi
	pop	rbp
	ret	0
	int	3
?catch$1@?0???$?6U?$char_traits@D@std@@@std@@YAAEAV?$basic_ostream@DU?$char_traits@D@std@@@0@AEAV10@PEBD@Z@4HA ENDP ; `std::operator<<<std::char_traits<char> >'::`1'::catch$1
text$x	ENDS
; Function compile flags: /Odtp /RTCsu /ZI
; File c:\program files (x86)\microsoft visual studio\2017\enterprise\vc\tools\msvc\14.14.26428\include\ostream
;	COMDAT ??$?6U?$char_traits@D@std@@@std@@YAAEAV?$basic_ostream@DU?$char_traits@D@std@@@0@AEAV10@D@Z
_TEXT	SEGMENT
_State$ = 4
_Ok$ = 40
_Pad$4 = 88
$T5 = 308
$T6 = 340
$T7 = 372
$T8 = 404
$T9 = 436
$T10 = 468
$T11 = 504
$T12 = 536
tv288 = 548
tv283 = 548
tv65 = 548
tv289 = 552
tv286 = 552
tv284 = 552
tv130 = 552
tv290 = 560
tv287 = 560
tv285 = 560
_Ostr$ = 608
_Ch$ = 616
??$?6U?$char_traits@D@std@@@std@@YAAEAV?$basic_ostream@DU?$char_traits@D@std@@@0@AEAV10@D@Z PROC ; std::operator<<<std::char_traits<char> >, COMDAT

; 828  : 	{	// insert a char into char stream

$LN23:
	mov	BYTE PTR [rsp+16], dl
	mov	QWORD PTR [rsp+8], rcx
	push	rbp
	push	rdi
	sub	rsp, 616				; 00000268H
	lea	rbp, QWORD PTR [rsp+32]
	mov	rdi, rsp
	mov	ecx, 154				; 0000009aH
	mov	eax, -858993460				; ccccccccH
	rep stosd
	mov	rcx, QWORD PTR [rsp+648]
	mov	QWORD PTR $T12[rbp], -2

; 829  : 	typedef char _Elem;
; 830  : 	typedef basic_ostream<_Elem, _Traits> _Myos;
; 831  : 	ios_base::iostate _State = ios_base::goodbit;

	mov	DWORD PTR _State$[rbp], 0

; 832  : 	const typename _Myos::sentry _Ok(_Ostr);

	mov	rdx, QWORD PTR _Ostr$[rbp]
	lea	rcx, QWORD PTR _Ok$[rbp]
	call	??0sentry@?$basic_ostream@DU?$char_traits@D@std@@@std@@QEAA@AEAV12@@Z ; std::basic_ostream<char,std::char_traits<char> >::sentry::sentry
	npad	1

; 833  : 
; 834  : 	if (_Ok)

	lea	rcx, QWORD PTR _Ok$[rbp]
	call	??Bsentry@?$basic_ostream@DU?$char_traits@D@std@@@std@@QEBA_NXZ ; std::basic_ostream<char,std::char_traits<char> >::sentry::operator bool
	movzx	eax, al
	test	eax, eax
	je	$LN8@operator

; 835  : 		{	// state okay, insert
; 836  : 		streamsize _Pad = _Ostr.width() <= 1 ? 0 : _Ostr.width() - 1;

	mov	rax, QWORD PTR _Ostr$[rbp]
	mov	rax, QWORD PTR [rax]
	movsxd	rax, DWORD PTR [rax+4]
	mov	rcx, QWORD PTR _Ostr$[rbp]
	add	rcx, rax
	mov	rax, rcx
	mov	rcx, rax
	call	QWORD PTR __imp_?width@ios_base@std@@QEBA_JXZ
	cmp	rax, 1
	jg	SHORT $LN15@operator
	mov	QWORD PTR tv130[rbp], 0
	jmp	SHORT $LN16@operator
$LN15@operator:
	mov	rax, QWORD PTR _Ostr$[rbp]
	mov	rax, QWORD PTR [rax]
	movsxd	rax, DWORD PTR [rax+4]
	mov	rcx, QWORD PTR _Ostr$[rbp]
	add	rcx, rax
	mov	rax, rcx
	mov	rcx, rax
	call	QWORD PTR __imp_?width@ios_base@std@@QEBA_JXZ
	dec	rax
	mov	QWORD PTR tv130[rbp], rax
$LN16@operator:
	mov	rax, QWORD PTR tv130[rbp]
	mov	QWORD PTR _Pad$4[rbp], rax

; 837  : 
; 838  : 		_TRY_IO_BEGIN
; 839  : 		if ((_Ostr.flags() & ios_base::adjustfield) != ios_base::left)

	mov	rax, QWORD PTR _Ostr$[rbp]
	mov	rax, QWORD PTR [rax]
	movsxd	rax, DWORD PTR [rax+4]
	mov	rcx, QWORD PTR _Ostr$[rbp]
	add	rcx, rax
	mov	rax, rcx
	mov	rcx, rax
	call	QWORD PTR __imp_?flags@ios_base@std@@QEBAHXZ
	mov	DWORD PTR tv65[rbp], eax
	mov	eax, DWORD PTR tv65[rbp]
	and	eax, 448				; 000001c0H
	cmp	eax, 64					; 00000040H
	je	$LN10@operator

; 840  : 			for (; _State == ios_base::goodbit && 0 < _Pad;

	jmp	SHORT $LN4@operator
$LN2@operator:

; 841  : 				--_Pad)	// pad on left

	mov	rax, QWORD PTR _Pad$4[rbp]
	dec	rax
	mov	QWORD PTR _Pad$4[rbp], rax
$LN4@operator:

; 840  : 			for (; _State == ios_base::goodbit && 0 < _Pad;

	cmp	DWORD PTR _State$[rbp], 0
	jne	$LN10@operator
	cmp	QWORD PTR _Pad$4[rbp], 0
	jle	$LN10@operator

; 842  : 				if (_Traits::eq_int_type(_Traits::eof(),

	mov	rax, QWORD PTR _Ostr$[rbp]
	mov	rax, QWORD PTR [rax]
	movsxd	rax, DWORD PTR [rax+4]
	mov	rcx, QWORD PTR _Ostr$[rbp]
	add	rcx, rax
	mov	rax, rcx
	mov	rcx, rax
	call	QWORD PTR __imp_?fill@?$basic_ios@DU?$char_traits@D@std@@@std@@QEBADXZ
	mov	BYTE PTR tv283[rbp], al
	mov	rax, QWORD PTR _Ostr$[rbp]
	mov	rax, QWORD PTR [rax]
	movsxd	rax, DWORD PTR [rax+4]
	mov	rcx, QWORD PTR _Ostr$[rbp]
	add	rcx, rax
	mov	rax, rcx
	mov	rcx, rax
	call	QWORD PTR __imp_?rdbuf@?$basic_ios@DU?$char_traits@D@std@@@std@@QEBAPEAV?$basic_streambuf@DU?$char_traits@D@std@@@2@XZ
	mov	QWORD PTR tv284[rbp], rax
	movzx	edx, BYTE PTR tv283[rbp]
	mov	rcx, QWORD PTR tv284[rbp]
	call	QWORD PTR __imp_?sputc@?$basic_streambuf@DU?$char_traits@D@std@@@std@@QEAAHD@Z
	mov	DWORD PTR tv285[rbp], eax
	mov	eax, DWORD PTR tv285[rbp]
	mov	DWORD PTR $T5[rbp], eax
	call	?eof@?$char_traits@D@std@@SAHXZ		; std::char_traits<char>::eof
	mov	DWORD PTR $T6[rbp], eax
	lea	rdx, QWORD PTR $T5[rbp]
	lea	rcx, QWORD PTR $T6[rbp]
	call	?eq_int_type@?$char_traits@D@std@@SA_NAEBH0@Z ; std::char_traits<char>::eq_int_type
	movzx	eax, al
	test	eax, eax
	je	SHORT $LN11@operator

; 843  : 					_Ostr.rdbuf()->sputc(_Ostr.fill())))
; 844  : 					_State |= ios_base::badbit;

	mov	eax, DWORD PTR _State$[rbp]
	or	eax, 4
	mov	DWORD PTR _State$[rbp], eax
$LN11@operator:

; 845  : 
; 846  : 		if (_State == ios_base::goodbit

	jmp	$LN2@operator
$LN10@operator:

; 847  : 			&& _Traits::eq_int_type(_Traits::eof(),

	cmp	DWORD PTR _State$[rbp], 0
	jne	SHORT $LN12@operator
	mov	rax, QWORD PTR _Ostr$[rbp]
	mov	rax, QWORD PTR [rax]
	movsxd	rax, DWORD PTR [rax+4]
	mov	rcx, QWORD PTR _Ostr$[rbp]
	add	rcx, rax
	mov	rax, rcx
	mov	rcx, rax
	call	QWORD PTR __imp_?rdbuf@?$basic_ios@DU?$char_traits@D@std@@@std@@QEBAPEAV?$basic_streambuf@DU?$char_traits@D@std@@@2@XZ
	mov	QWORD PTR tv286[rbp], rax
	movzx	edx, BYTE PTR _Ch$[rbp]
	mov	rcx, QWORD PTR tv286[rbp]
	call	QWORD PTR __imp_?sputc@?$basic_streambuf@DU?$char_traits@D@std@@@std@@QEAAHD@Z
	mov	DWORD PTR tv287[rbp], eax
	mov	eax, DWORD PTR tv287[rbp]
	mov	DWORD PTR $T7[rbp], eax
	call	?eof@?$char_traits@D@std@@SAHXZ		; std::char_traits<char>::eof
	mov	DWORD PTR $T8[rbp], eax
	lea	rdx, QWORD PTR $T7[rbp]
	lea	rcx, QWORD PTR $T8[rbp]
	call	?eq_int_type@?$char_traits@D@std@@SA_NAEBH0@Z ; std::char_traits<char>::eq_int_type
	movzx	eax, al
	test	eax, eax
	je	SHORT $LN12@operator

; 848  : 				_Ostr.rdbuf()->sputc(_Ch)))
; 849  : 			_State |= ios_base::badbit;

	mov	eax, DWORD PTR _State$[rbp]
	or	eax, 4
	mov	DWORD PTR _State$[rbp], eax
$LN12@operator:

; 850  : 
; 851  : 		for (; _State == ios_base::goodbit && 0 < _Pad;

	jmp	SHORT $LN7@operator
$LN5@operator:

; 852  : 			--_Pad)	// pad on right

	mov	rax, QWORD PTR _Pad$4[rbp]
	dec	rax
	mov	QWORD PTR _Pad$4[rbp], rax
$LN7@operator:

; 850  : 
; 851  : 		for (; _State == ios_base::goodbit && 0 < _Pad;

	cmp	DWORD PTR _State$[rbp], 0
	jne	$LN6@operator
	cmp	QWORD PTR _Pad$4[rbp], 0
	jle	$LN6@operator

; 853  : 			if (_Traits::eq_int_type(_Traits::eof(),

	mov	rax, QWORD PTR _Ostr$[rbp]
	mov	rax, QWORD PTR [rax]
	movsxd	rax, DWORD PTR [rax+4]
	mov	rcx, QWORD PTR _Ostr$[rbp]
	add	rcx, rax
	mov	rax, rcx
	mov	rcx, rax
	call	QWORD PTR __imp_?fill@?$basic_ios@DU?$char_traits@D@std@@@std@@QEBADXZ
	mov	BYTE PTR tv288[rbp], al
	mov	rax, QWORD PTR _Ostr$[rbp]
	mov	rax, QWORD PTR [rax]
	movsxd	rax, DWORD PTR [rax+4]
	mov	rcx, QWORD PTR _Ostr$[rbp]
	add	rcx, rax
	mov	rax, rcx
	mov	rcx, rax
	call	QWORD PTR __imp_?rdbuf@?$basic_ios@DU?$char_traits@D@std@@@std@@QEBAPEAV?$basic_streambuf@DU?$char_traits@D@std@@@2@XZ
	mov	QWORD PTR tv289[rbp], rax
	movzx	edx, BYTE PTR tv288[rbp]
	mov	rcx, QWORD PTR tv289[rbp]
	call	QWORD PTR __imp_?sputc@?$basic_streambuf@DU?$char_traits@D@std@@@std@@QEAAHD@Z
	mov	DWORD PTR tv290[rbp], eax
	mov	eax, DWORD PTR tv290[rbp]
	mov	DWORD PTR $T9[rbp], eax
	call	?eof@?$char_traits@D@std@@SAHXZ		; std::char_traits<char>::eof
	mov	DWORD PTR $T10[rbp], eax
	lea	rdx, QWORD PTR $T9[rbp]
	lea	rcx, QWORD PTR $T10[rbp]
	call	?eq_int_type@?$char_traits@D@std@@SA_NAEBH0@Z ; std::char_traits<char>::eq_int_type
	movzx	eax, al
	test	eax, eax
	je	SHORT $LN13@operator

; 854  : 				_Ostr.rdbuf()->sputc(_Ostr.fill())))
; 855  : 				_State |= ios_base::badbit;

	mov	eax, DWORD PTR _State$[rbp]
	or	eax, 4
	mov	DWORD PTR _State$[rbp], eax
$LN13@operator:

; 856  : 		_CATCH_IO_(_Ostr)

	jmp	$LN5@operator
$LN6@operator:
	jmp	SHORT $LN8@operator
$LN21@operator:
$LN8@operator:

; 857  : 		}
; 858  : 
; 859  : 	_Ostr.width(0);

	mov	rax, QWORD PTR _Ostr$[rbp]
	mov	rax, QWORD PTR [rax]
	movsxd	rax, DWORD PTR [rax+4]
	mov	rcx, QWORD PTR _Ostr$[rbp]
	add	rcx, rax
	mov	rax, rcx
	xor	edx, edx
	mov	rcx, rax
	call	QWORD PTR __imp_?width@ios_base@std@@QEAA_J_J@Z

; 860  : 	_Ostr.setstate(_State);

	mov	rax, QWORD PTR _Ostr$[rbp]
	mov	rax, QWORD PTR [rax]
	movsxd	rax, DWORD PTR [rax+4]
	mov	rcx, QWORD PTR _Ostr$[rbp]
	add	rcx, rax
	mov	rax, rcx
	xor	r8d, r8d
	mov	edx, DWORD PTR _State$[rbp]
	mov	rcx, rax
	call	QWORD PTR __imp_?setstate@?$basic_ios@DU?$char_traits@D@std@@@std@@QEAAXH_N@Z

; 861  : 	return (_Ostr);

	mov	rax, QWORD PTR _Ostr$[rbp]
	mov	QWORD PTR $T11[rbp], rax
	lea	rcx, QWORD PTR _Ok$[rbp]
	call	??1sentry@?$basic_ostream@DU?$char_traits@D@std@@@std@@QEAA@XZ ; std::basic_ostream<char,std::char_traits<char> >::sentry::~sentry
	mov	rax, QWORD PTR $T11[rbp]

; 862  : 	}

	mov	rdi, rax
	lea	rcx, QWORD PTR [rbp-32]
	lea	rdx, OFFSET FLAT:??$?6U?$char_traits@D@std@@@std@@YAAEAV?$basic_ostream@DU?$char_traits@D@std@@@0@AEAV10@D@Z$rtcFrameData
	call	_RTC_CheckStackVars
	mov	rax, rdi
	lea	rsp, QWORD PTR [rbp+584]
	pop	rdi
	pop	rbp
	ret	0
??$?6U?$char_traits@D@std@@@std@@YAAEAV?$basic_ostream@DU?$char_traits@D@std@@@0@AEAV10@D@Z ENDP ; std::operator<<<std::char_traits<char> >
_TEXT	ENDS
;	COMDAT text$x
text$x	SEGMENT
_State$ = 4
_Ok$ = 40
_Pad$4 = 88
$T5 = 308
$T6 = 340
$T7 = 372
$T8 = 404
$T9 = 436
$T10 = 468
$T11 = 504
$T12 = 536
tv288 = 548
tv283 = 548
tv65 = 548
tv289 = 552
tv286 = 552
tv284 = 552
tv130 = 552
tv290 = 560
tv287 = 560
tv285 = 560
_Ostr$ = 608
_Ch$ = 616
?dtor$0@?0???$?6U?$char_traits@D@std@@@std@@YAAEAV?$basic_ostream@DU?$char_traits@D@std@@@0@AEAV10@D@Z@4HA PROC ; `std::operator<<<std::char_traits<char> >'::`1'::dtor$0
	mov	QWORD PTR [rsp+8], rcx
	mov	QWORD PTR [rsp+16], rdx
	push	rbp
	push	rdi
	sub	rsp, 40					; 00000028H
	lea	rbp, QWORD PTR [rdx+32]
	lea	rcx, QWORD PTR _Ok$[rbp]
	call	??1sentry@?$basic_ostream@DU?$char_traits@D@std@@@std@@QEAA@XZ ; std::basic_ostream<char,std::char_traits<char> >::sentry::~sentry
	add	rsp, 40					; 00000028H
	pop	rdi
	pop	rbp
	ret	0
?dtor$0@?0???$?6U?$char_traits@D@std@@@std@@YAAEAV?$basic_ostream@DU?$char_traits@D@std@@@0@AEAV10@D@Z@4HA ENDP ; `std::operator<<<std::char_traits<char> >'::`1'::dtor$0
text$x	ENDS
;	COMDAT text$x
text$x	SEGMENT
_State$ = 4
_Ok$ = 40
_Pad$4 = 88
$T5 = 308
$T6 = 340
$T7 = 372
$T8 = 404
$T9 = 436
$T10 = 468
$T11 = 504
$T12 = 536
tv288 = 548
tv283 = 548
tv65 = 548
tv289 = 552
tv286 = 552
tv284 = 552
tv130 = 552
tv290 = 560
tv287 = 560
tv285 = 560
_Ostr$ = 608
_Ch$ = 616
?catch$1@?0???$?6U?$char_traits@D@std@@@std@@YAAEAV?$basic_ostream@DU?$char_traits@D@std@@@0@AEAV10@D@Z@4HA PROC ; `std::operator<<<std::char_traits<char> >'::`1'::catch$1

; 856  : 		_CATCH_IO_(_Ostr)

	mov	QWORD PTR [rsp+8], rcx
	mov	QWORD PTR [rsp+16], rdx
	push	rbp
	push	rdi
	sub	rsp, 40					; 00000028H
	lea	rbp, QWORD PTR [rdx+32]
__catch$??$?6U?$char_traits@D@std@@@std@@YAAEAV?$basic_ostream@DU?$char_traits@D@std@@@0@AEAV10@D@Z$0:
	mov	rax, QWORD PTR _Ostr$[rbp]
	mov	rax, QWORD PTR [rax]
	movsxd	rax, DWORD PTR [rax+4]
	mov	rcx, QWORD PTR _Ostr$[rbp]
	add	rcx, rax
	mov	rax, rcx
	mov	r8b, 1
	mov	edx, 4
	mov	rcx, rax
	call	QWORD PTR __imp_?setstate@?$basic_ios@DU?$char_traits@D@std@@@std@@QEAAXH_N@Z
	npad	1
	lea	rax, $LN21@catch$1
	add	rsp, 40					; 00000028H
	pop	rdi
	pop	rbp
	ret	0
	int	3
?catch$1@?0???$?6U?$char_traits@D@std@@@std@@YAAEAV?$basic_ostream@DU?$char_traits@D@std@@@0@AEAV10@D@Z@4HA ENDP ; `std::operator<<<std::char_traits<char> >'::`1'::catch$1
text$x	ENDS
; Function compile flags: /Odtp /RTCsu /ZI
;	COMDAT text$x
text$x	SEGMENT
_State$ = 4
_Ok$ = 40
_Pad$4 = 88
$T5 = 308
$T6 = 340
$T7 = 372
$T8 = 404
$T9 = 436
$T10 = 468
$T11 = 504
$T12 = 536
tv288 = 548
tv283 = 548
tv65 = 548
tv289 = 552
tv286 = 552
tv284 = 552
tv130 = 552
tv290 = 560
tv287 = 560
tv285 = 560
_Ostr$ = 608
_Ch$ = 616
?dtor$0@?0???$?6U?$char_traits@D@std@@@std@@YAAEAV?$basic_ostream@DU?$char_traits@D@std@@@0@AEAV10@D@Z@4HA PROC ; `std::operator<<<std::char_traits<char> >'::`1'::dtor$0
	mov	QWORD PTR [rsp+8], rcx
	mov	QWORD PTR [rsp+16], rdx
	push	rbp
	push	rdi
	sub	rsp, 40					; 00000028H
	lea	rbp, QWORD PTR [rdx+32]
	lea	rcx, QWORD PTR _Ok$[rbp]
	call	??1sentry@?$basic_ostream@DU?$char_traits@D@std@@@std@@QEAA@XZ ; std::basic_ostream<char,std::char_traits<char> >::sentry::~sentry
	add	rsp, 40					; 00000028H
	pop	rdi
	pop	rbp
	ret	0
?dtor$0@?0???$?6U?$char_traits@D@std@@@std@@YAAEAV?$basic_ostream@DU?$char_traits@D@std@@@0@AEAV10@D@Z@4HA ENDP ; `std::operator<<<std::char_traits<char> >'::`1'::dtor$0
text$x	ENDS
; Function compile flags: /Odtp /RTCsu /ZI
;	COMDAT text$x
text$x	SEGMENT
_State$ = 4
_Ok$ = 40
_Pad$4 = 88
$T5 = 308
$T6 = 340
$T7 = 372
$T8 = 404
$T9 = 436
$T10 = 468
$T11 = 504
$T12 = 536
tv288 = 548
tv283 = 548
tv65 = 548
tv289 = 552
tv286 = 552
tv284 = 552
tv130 = 552
tv290 = 560
tv287 = 560
tv285 = 560
_Ostr$ = 608
_Ch$ = 616
?catch$1@?0???$?6U?$char_traits@D@std@@@std@@YAAEAV?$basic_ostream@DU?$char_traits@D@std@@@0@AEAV10@D@Z@4HA PROC ; `std::operator<<<std::char_traits<char> >'::`1'::catch$1

; 856  : 		_CATCH_IO_(_Ostr)

	mov	QWORD PTR [rsp+8], rcx
	mov	QWORD PTR [rsp+16], rdx
	push	rbp
	push	rdi
	sub	rsp, 40					; 00000028H
	lea	rbp, QWORD PTR [rdx+32]
__catch$??$?6U?$char_traits@D@std@@@std@@YAAEAV?$basic_ostream@DU?$char_traits@D@std@@@0@AEAV10@D@Z$0:
	mov	rax, QWORD PTR _Ostr$[rbp]
	mov	rax, QWORD PTR [rax]
	movsxd	rax, DWORD PTR [rax+4]
	mov	rcx, QWORD PTR _Ostr$[rbp]
	add	rcx, rax
	mov	rax, rcx
	mov	r8b, 1
	mov	edx, 4
	mov	rcx, rax
	call	QWORD PTR __imp_?setstate@?$basic_ios@DU?$char_traits@D@std@@@std@@QEAAXH_N@Z
	npad	1
	lea	rax, $LN21@catch$1
	add	rsp, 40					; 00000028H
	pop	rdi
	pop	rbp
	ret	0
	int	3
?catch$1@?0???$?6U?$char_traits@D@std@@@std@@YAAEAV?$basic_ostream@DU?$char_traits@D@std@@@0@AEAV10@D@Z@4HA ENDP ; `std::operator<<<std::char_traits<char> >'::`1'::catch$1
text$x	ENDS
; Function compile flags: /Odtp /RTCsu /ZI
; File c:\users\dm282\source\repos\benchmarker\benchmarker\benchmarker.cpp
;	COMDAT ?selection@@YAXXZ
_TEXT	SEGMENT
choose$ = 4
msg$6 = 40
$T7 = 292
$T8 = 328
$T9 = 360
tv133 = 372
?selection@@YAXXZ PROC					; selection, COMDAT

; 18   : {

$LN18:
	push	rbp
	push	rdi
	sub	rsp, 424				; 000001a8H
	lea	rbp, QWORD PTR [rsp+32]
	mov	rdi, rsp
	mov	ecx, 106				; 0000006aH
	mov	eax, -858993460				; ccccccccH
	rep stosd
	mov	QWORD PTR $T9[rbp], -2
$base$19:

; 19   : 	int choose;
; 20   : 	base:cout << "Type 1 to start benchmarking." << '\n';

	lea	rdx, OFFSET FLAT:??_C@_0BO@DAJFEOKA@Type?51?5to?5start?5benchmarking?4?$AA@
	mov	rcx, QWORD PTR __imp_?cout@std@@3V?$basic_ostream@DU?$char_traits@D@std@@@1@A
	call	??$?6U?$char_traits@D@std@@@std@@YAAEAV?$basic_ostream@DU?$char_traits@D@std@@@0@AEAV10@PEBD@Z ; std::operator<<<std::char_traits<char> >
	mov	dl, 10
	mov	rcx, rax
	call	??$?6U?$char_traits@D@std@@@std@@YAAEAV?$basic_ostream@DU?$char_traits@D@std@@@0@AEAV10@D@Z ; std::operator<<<std::char_traits<char> >
	npad	1

; 21   : 	try
; 22   : 	{
; 23   : 		cin >> (int) choose;

	lea	rdx, QWORD PTR choose$[rbp]
	mov	rcx, QWORD PTR __imp_?cin@std@@3V?$basic_istream@DU?$char_traits@D@std@@@1@A
	call	QWORD PTR __imp_??5?$basic_istream@DU?$char_traits@D@std@@@std@@QEAAAEAV01@AEAH@Z

; 24   : 		if (cin.fail())

	mov	rax, QWORD PTR __imp_?cin@std@@3V?$basic_istream@DU?$char_traits@D@std@@@1@A
	mov	rax, QWORD PTR [rax]
	movsxd	rax, DWORD PTR [rax+4]
	mov	rcx, QWORD PTR __imp_?cin@std@@3V?$basic_istream@DU?$char_traits@D@std@@@1@A
	add	rcx, rax
	mov	rax, rcx
	mov	rcx, rax
	call	QWORD PTR __imp_?fail@ios_base@std@@QEBA_NXZ
	mov	BYTE PTR tv133[rbp], al
	movzx	eax, BYTE PTR tv133[rbp]
	test	eax, eax
	je	SHORT $LN3@selection

; 25   : 			throw 2;

	mov	DWORD PTR $T7[rbp], 2
	lea	rdx, OFFSET FLAT:_TI1H
	lea	rcx, QWORD PTR $T7[rbp]
	call	_CxxThrowException
$LN3@selection:

; 26   : 		if (choose != 1)

	cmp	DWORD PTR choose$[rbp], 1
	je	SHORT $LN4@selection

; 27   : 		{
; 28   : 			throw "Invalid number, try again \n";

	lea	rax, OFFSET FLAT:??_C@_0BM@BHCOCDDO@Invalid?5number?0?5try?5again?5?6?$AA@
	mov	QWORD PTR $T8[rbp], rax
	lea	rdx, OFFSET FLAT:_TI2PEAD
	lea	rcx, QWORD PTR $T8[rbp]
	call	_CxxThrowException
	npad	1
$LN4@selection:
	jmp	SHORT $LN13@selection
$LN14@selection:

; 35   : 	}
; 36   : 	catch (int x)
; 37   : 	{
; 38   : 		cout << "Invalid entry. Program will close now. \n";
; 39   : 		_getch();
; 40   : 		exit(1);
; 41   : 	}

	jmp	SHORT __tryend$?selection@@YAXXZ$2
$LN13@selection:
	jmp	SHORT __tryend$?selection@@YAXXZ$2
$LN12@selection:
__tryend$?selection@@YAXXZ$2:
	jmp	SHORT $LN5@selection
$LN10@selection:

; 29   : 		}
; 30   : 	}
; 31   : 	catch (char* msg)
; 32   : 	{
; 33   : 		cout << msg << '\n';
; 34   : 		goto base;

	jmp	$base$19
$LN5@selection:

; 42   : }

	lea	rcx, QWORD PTR [rbp-32]
	lea	rdx, OFFSET FLAT:?selection@@YAXXZ$rtcFrameData
	call	_RTC_CheckStackVars
	lea	rsp, QWORD PTR [rbp+392]
	pop	rdi
	pop	rbp
	ret	0
$LN15@selection:
?selection@@YAXXZ ENDP					; selection
_TEXT	ENDS
;	COMDAT text$x
text$x	SEGMENT
choose$ = 4
msg$6 = 40
$T7 = 292
$T8 = 328
$T9 = 360
tv133 = 372
?catch$0@?0??selection@@YAXXZ@4HA PROC			; `selection'::`1'::catch$0

; 29   : 		}
; 30   : 	}
; 31   : 	catch (char* msg)
; 32   : 	{

	mov	QWORD PTR [rsp+8], rcx
	mov	QWORD PTR [rsp+16], rdx
	push	rbp
	push	rdi
	sub	rsp, 40					; 00000028H
	lea	rbp, QWORD PTR [rdx+32]
__catch$?selection@@YAXXZ$0:

; 29   : 		}
; 30   : 	}
; 31   : 	catch (char* msg)
; 32   : 	{
; 33   : 		cout << msg << '\n';

	mov	rdx, QWORD PTR msg$6[rbp]
	mov	rcx, QWORD PTR __imp_?cout@std@@3V?$basic_ostream@DU?$char_traits@D@std@@@1@A
	call	??$?6U?$char_traits@D@std@@@std@@YAAEAV?$basic_ostream@DU?$char_traits@D@std@@@0@AEAV10@PEBD@Z ; std::operator<<<std::char_traits<char> >
	mov	dl, 10
	mov	rcx, rax
	call	??$?6U?$char_traits@D@std@@@std@@YAAEAV?$basic_ostream@DU?$char_traits@D@std@@@0@AEAV10@D@Z ; std::operator<<<std::char_traits<char> >
	npad	1

; 29   : 		}
; 30   : 	}
; 31   : 	catch (char* msg)
; 32   : 	{
; 33   : 		cout << msg << '\n';
; 34   : 		goto base;

	lea	rax, $LN10@catch$0
	jmp	SHORT $LN16@catch$0

; 35   : 	}

	lea	rax, $LN12@catch$0
$LN16@catch$0:
	add	rsp, 40					; 00000028H
	pop	rdi
	pop	rbp
	ret	0
	int	3
?catch$0@?0??selection@@YAXXZ@4HA ENDP			; `selection'::`1'::catch$0
choose$ = 4
msg$6 = 40
$T7 = 292
$T8 = 328
$T9 = 360
tv133 = 372
?catch$1@?0??selection@@YAXXZ@4HA PROC			; `selection'::`1'::catch$1

; 35   : 	}
; 36   : 	catch (int x)
; 37   : 	{

	mov	QWORD PTR [rsp+8], rcx
	mov	QWORD PTR [rsp+16], rdx
	push	rbp
	push	rdi
	sub	rsp, 40					; 00000028H
	lea	rbp, QWORD PTR [rdx+32]
__catch$?selection@@YAXXZ$1:

; 35   : 	}
; 36   : 	catch (int x)
; 37   : 	{
; 38   : 		cout << "Invalid entry. Program will close now. \n";

	lea	rdx, OFFSET FLAT:??_C@_0CJ@BBLAGGGH@Invalid?5entry?4?5Program?5will?5clos@
	mov	rcx, QWORD PTR __imp_?cout@std@@3V?$basic_ostream@DU?$char_traits@D@std@@@1@A
	call	??$?6U?$char_traits@D@std@@@std@@YAAEAV?$basic_ostream@DU?$char_traits@D@std@@@0@AEAV10@PEBD@Z ; std::operator<<<std::char_traits<char> >

; 35   : 	}
; 36   : 	catch (int x)
; 37   : 	{
; 38   : 		cout << "Invalid entry. Program will close now. \n";
; 39   : 		_getch();

	call	QWORD PTR __imp__getch

; 35   : 	}
; 36   : 	catch (int x)
; 37   : 	{
; 38   : 		cout << "Invalid entry. Program will close now. \n";
; 39   : 		_getch();
; 40   : 		exit(1);

	mov	ecx, 1
	call	QWORD PTR __imp_exit
	npad	1

; 35   : 	}
; 36   : 	catch (int x)
; 37   : 	{
; 38   : 		cout << "Invalid entry. Program will close now. \n";
; 39   : 		_getch();
; 40   : 		exit(1);
; 41   : 	}

	lea	rax, $LN14@catch$1
	add	rsp, 40					; 00000028H
	pop	rdi
	pop	rbp
	ret	0
	int	3
?catch$1@?0??selection@@YAXXZ@4HA ENDP			; `selection'::`1'::catch$1
text$x	ENDS
; Function compile flags: /Odtp /RTCsu /ZI
;	COMDAT text$x
text$x	SEGMENT
choose$ = 4
msg$6 = 40
$T7 = 292
$T8 = 328
$T9 = 360
tv133 = 372
?catch$0@?0??selection@@YAXXZ@4HA PROC			; `selection'::`1'::catch$0

; 32   : 	{

	mov	QWORD PTR [rsp+8], rcx
	mov	QWORD PTR [rsp+16], rdx
	push	rbp
	push	rdi
	sub	rsp, 40					; 00000028H
	lea	rbp, QWORD PTR [rdx+32]
__catch$?selection@@YAXXZ$0:

; 33   : 		cout << msg << '\n';

	mov	rdx, QWORD PTR msg$6[rbp]
	mov	rcx, QWORD PTR __imp_?cout@std@@3V?$basic_ostream@DU?$char_traits@D@std@@@1@A
	call	??$?6U?$char_traits@D@std@@@std@@YAAEAV?$basic_ostream@DU?$char_traits@D@std@@@0@AEAV10@PEBD@Z ; std::operator<<<std::char_traits<char> >
	mov	dl, 10
	mov	rcx, rax
	call	??$?6U?$char_traits@D@std@@@std@@YAAEAV?$basic_ostream@DU?$char_traits@D@std@@@0@AEAV10@D@Z ; std::operator<<<std::char_traits<char> >
	npad	1

; 34   : 		goto base;

	lea	rax, $LN10@catch$0
	jmp	SHORT $LN16@catch$0

; 35   : 	}

	lea	rax, $LN12@catch$0
$LN16@catch$0:
	add	rsp, 40					; 00000028H
	pop	rdi
	pop	rbp
	ret	0
	int	3
?catch$0@?0??selection@@YAXXZ@4HA ENDP			; `selection'::`1'::catch$0
text$x	ENDS
; Function compile flags: /Odtp /RTCsu /ZI
;	COMDAT text$x
text$x	SEGMENT
choose$ = 4
msg$6 = 40
$T7 = 292
$T8 = 328
$T9 = 360
tv133 = 372
?catch$1@?0??selection@@YAXXZ@4HA PROC			; `selection'::`1'::catch$1

; 37   : 	{

	mov	QWORD PTR [rsp+8], rcx
	mov	QWORD PTR [rsp+16], rdx
	push	rbp
	push	rdi
	sub	rsp, 40					; 00000028H
	lea	rbp, QWORD PTR [rdx+32]
__catch$?selection@@YAXXZ$1:

; 38   : 		cout << "Invalid entry. Program will close now. \n";

	lea	rdx, OFFSET FLAT:??_C@_0CJ@BBLAGGGH@Invalid?5entry?4?5Program?5will?5clos@
	mov	rcx, QWORD PTR __imp_?cout@std@@3V?$basic_ostream@DU?$char_traits@D@std@@@1@A
	call	??$?6U?$char_traits@D@std@@@std@@YAAEAV?$basic_ostream@DU?$char_traits@D@std@@@0@AEAV10@PEBD@Z ; std::operator<<<std::char_traits<char> >

; 39   : 		_getch();

	call	QWORD PTR __imp__getch

; 40   : 		exit(1);

	mov	ecx, 1
	call	QWORD PTR __imp_exit
	npad	1

; 41   : 	}

	lea	rax, $LN14@catch$1
	add	rsp, 40					; 00000028H
	pop	rdi
	pop	rbp
	ret	0
	int	3
?catch$1@?0??selection@@YAXXZ@4HA ENDP			; `selection'::`1'::catch$1
text$x	ENDS
; Function compile flags: /Odtp /RTCsu /ZI
; File c:\program files (x86)\microsoft visual studio\2017\enterprise\vc\tools\msvc\14.14.26428\include\iosfwd
;	COMDAT ?eof@?$char_traits@D@std@@SAHXZ
_TEXT	SEGMENT
?eof@?$char_traits@D@std@@SAHXZ PROC			; std::char_traits<char>::eof, COMDAT

; 523  : 		{	// return end-of-file metacharacter

$LN3:
	push	rbp
	push	rdi
	sub	rsp, 200				; 000000c8H
	mov	rbp, rsp
	mov	rdi, rsp
	mov	ecx, 50					; 00000032H
	mov	eax, -858993460				; ccccccccH
	rep stosd

; 524  : 		return (EOF);

	mov	eax, -1

; 525  : 		}

	lea	rsp, QWORD PTR [rbp+200]
	pop	rdi
	pop	rbp
	ret	0
?eof@?$char_traits@D@std@@SAHXZ ENDP			; std::char_traits<char>::eof
_TEXT	ENDS
; Function compile flags: /Odtp /RTCsu /ZI
; File c:\program files (x86)\microsoft visual studio\2017\enterprise\vc\tools\msvc\14.14.26428\include\iosfwd
;	COMDAT ?eq_int_type@?$char_traits@D@std@@SA_NAEBH0@Z
_TEXT	SEGMENT
tv65 = 192
_Left$ = 240
_Right$ = 248
?eq_int_type@?$char_traits@D@std@@SA_NAEBH0@Z PROC	; std::char_traits<char>::eq_int_type, COMDAT

; 513  : 		{	// test for metacharacter equality

$LN5:
	mov	QWORD PTR [rsp+16], rdx
	mov	QWORD PTR [rsp+8], rcx
	push	rbp
	push	rdi
	sub	rsp, 216				; 000000d8H
	mov	rbp, rsp
	mov	rdi, rsp
	mov	ecx, 54					; 00000036H
	mov	eax, -858993460				; ccccccccH
	rep stosd
	mov	rcx, QWORD PTR [rsp+248]

; 514  : 		return (_Left == _Right);

	mov	rax, QWORD PTR _Left$[rbp]
	mov	rcx, QWORD PTR _Right$[rbp]
	mov	ecx, DWORD PTR [rcx]
	cmp	DWORD PTR [rax], ecx
	jne	SHORT $LN3@eq_int_typ
	mov	DWORD PTR tv65[rbp], 1
	jmp	SHORT $LN4@eq_int_typ
$LN3@eq_int_typ:
	mov	DWORD PTR tv65[rbp], 0
$LN4@eq_int_typ:
	movzx	eax, BYTE PTR tv65[rbp]

; 515  : 		}

	lea	rsp, QWORD PTR [rbp+216]
	pop	rdi
	pop	rbp
	ret	0
?eq_int_type@?$char_traits@D@std@@SA_NAEBH0@Z ENDP	; std::char_traits<char>::eq_int_type
_TEXT	ENDS
; Function compile flags: /Odtp /RTCsu /ZI
; File c:\program files (x86)\microsoft visual studio\2017\enterprise\vc\tools\msvc\14.14.26428\include\iosfwd
;	COMDAT ?length@?$char_traits@D@std@@SA_KQEBD@Z
_TEXT	SEGMENT
_First$ = 224
?length@?$char_traits@D@std@@SA_KQEBD@Z PROC		; std::char_traits<char>::length, COMDAT

; 443  : 		{	// find length of null-terminated string

$LN3:
	mov	QWORD PTR [rsp+8], rcx
	push	rbp
	push	rdi
	sub	rsp, 232				; 000000e8H
	lea	rbp, QWORD PTR [rsp+32]
	mov	rdi, rsp
	mov	ecx, 58					; 0000003aH
	mov	eax, -858993460				; ccccccccH
	rep stosd
	mov	rcx, QWORD PTR [rsp+264]

; 444  : #if _HAS_CONSTEXPR_CHAR_TRAITS
; 445  : 		return (__builtin_strlen(_First));
; 446  : #else /* _HAS_CONSTEXPR_CHAR_TRAITS */
; 447  : 		return (_CSTD strlen(_First));

	mov	rcx, QWORD PTR _First$[rbp]
	call	strlen

; 448  : #endif /* _HAS_CONSTEXPR_CHAR_TRAITS */
; 449  : 		}

	lea	rsp, QWORD PTR [rbp+200]
	pop	rdi
	pop	rbp
	ret	0
?length@?$char_traits@D@std@@SA_KQEBD@Z ENDP		; std::char_traits<char>::length
_TEXT	ENDS
; Function compile flags: /Odtp /RTCsu /ZI
; File c:\program files (x86)\microsoft visual studio\2017\enterprise\vc\tools\msvc\14.14.26428\include\cmath
;	COMDAT ?pow@@YANNH@Z
_TEXT	SEGMENT
_Xx$ = 224
_Yx$ = 232
?pow@@YANNH@Z PROC					; pow, COMDAT

; 17   : 	{

$LN4:
	mov	DWORD PTR [rsp+16], edx
	movsd	QWORD PTR [rsp+8], xmm0
	push	rbp
	push	rdi
	sub	rsp, 248				; 000000f8H
	lea	rbp, QWORD PTR [rsp+48]
	mov	rdi, rsp
	mov	ecx, 62					; 0000003eH
	mov	eax, -858993460				; ccccccccH
	rep stosd

; 18   : 	if (_Yx == 2)

	cmp	DWORD PTR _Yx$[rbp], 2
	jne	SHORT $LN2@pow

; 19   : 		return (_Xx * _Xx);

	movsd	xmm0, QWORD PTR _Xx$[rbp]
	mulsd	xmm0, QWORD PTR _Xx$[rbp]
	jmp	SHORT $LN1@pow
$LN2@pow:

; 20   : 
; 21   : 	return (_CSTD pow(_Xx, static_cast<double>(_Yx)));

	cvtsi2sd xmm0, DWORD PTR _Yx$[rbp]
	movaps	xmm1, xmm0
	movsd	xmm0, QWORD PTR _Xx$[rbp]
	call	pow
$LN1@pow:

; 22   : 	}

	lea	rsp, QWORD PTR [rbp+200]
	pop	rdi
	pop	rbp
	ret	0
?pow@@YANNH@Z ENDP					; pow
_TEXT	ENDS
; Function compile flags: /Odtp /RTCsu /ZI
; File c:\users\dm282\source\repos\benchmarker\benchmarker\benchmarker.cpp
;	COMDAT ?__empty_global_delete@@YAXPEAX_K@Z
_TEXT	SEGMENT
__formal$ = 224
__formal$ = 232
?__empty_global_delete@@YAXPEAX_K@Z PROC		; __empty_global_delete, COMDAT

$LN3:
	mov	QWORD PTR [rsp+16], rdx
	mov	QWORD PTR [rsp+8], rcx
	push	rbp
	push	rdi
	sub	rsp, 200				; 000000c8H
	mov	rbp, rsp
	mov	rdi, rsp
	mov	ecx, 50					; 00000032H
	mov	eax, -858993460				; ccccccccH
	rep stosd
	mov	rcx, QWORD PTR [rsp+232]
	lea	rsp, QWORD PTR [rbp+200]
	pop	rdi
	pop	rbp
	ret	0
?__empty_global_delete@@YAXPEAX_K@Z ENDP		; __empty_global_delete
_TEXT	ENDS
; Function compile flags: /Odtp /RTCsu /ZI
; File c:\users\dm282\source\repos\benchmarker\benchmarker\benchmarker.cpp
;	COMDAT ?__empty_global_delete@@YAXPEAX@Z
_TEXT	SEGMENT
__formal$ = 224
?__empty_global_delete@@YAXPEAX@Z PROC			; __empty_global_delete, COMDAT

$LN3:
	mov	QWORD PTR [rsp+8], rcx
	push	rbp
	push	rdi
	sub	rsp, 200				; 000000c8H
	mov	rbp, rsp
	mov	rdi, rsp
	mov	ecx, 50					; 00000032H
	mov	eax, -858993460				; ccccccccH
	rep stosd
	mov	rcx, QWORD PTR [rsp+232]
	lea	rsp, QWORD PTR [rbp+200]
	pop	rdi
	pop	rbp
	ret	0
?__empty_global_delete@@YAXPEAX@Z ENDP			; __empty_global_delete
_TEXT	ENDS
END
